ARM GAS  /tmp/ccvsXuDi.s 			page 1


   1              		.cpu cortex-m4
   2              		.arch armv7e-m
   3              		.fpu fpv4-sp-d16
   4              		.eabi_attribute 27, 1
   5              		.eabi_attribute 28, 1
   6              		.eabi_attribute 20, 1
   7              		.eabi_attribute 21, 1
   8              		.eabi_attribute 23, 3
   9              		.eabi_attribute 24, 1
  10              		.eabi_attribute 25, 1
  11              		.eabi_attribute 26, 1
  12              		.eabi_attribute 30, 1
  13              		.eabi_attribute 34, 1
  14              		.eabi_attribute 18, 4
  15              		.file	"stm32g4xx_nucleo.c"
  16              		.text
  17              	.Ltext0:
  18              		.cfi_sections	.debug_frame
  19              		.file 1 "Drivers/BSP/STM32G4xx_Nucleo/stm32g4xx_nucleo.c"
  20              		.section	.text.COM1_MspInit,"ax",%progbits
  21              		.align	1
  22              		.syntax unified
  23              		.thumb
  24              		.thumb_func
  26              	COM1_MspInit:
  27              	.LVL0:
  28              	.LFB152:
   1:Drivers/BSP/STM32G4xx_Nucleo/stm32g4xx_nucleo.c **** /**
   2:Drivers/BSP/STM32G4xx_Nucleo/stm32g4xx_nucleo.c ****   ******************************************************************************
   3:Drivers/BSP/STM32G4xx_Nucleo/stm32g4xx_nucleo.c ****   * @file    stm32g4xx_nucleo.c
   4:Drivers/BSP/STM32G4xx_Nucleo/stm32g4xx_nucleo.c ****   * @author  MCD Application Team
   5:Drivers/BSP/STM32G4xx_Nucleo/stm32g4xx_nucleo.c ****   * @brief   This file provides set of firmware functions to manage:
   6:Drivers/BSP/STM32G4xx_Nucleo/stm32g4xx_nucleo.c ****   *          - LEDs and push-button available on STM32G4xx-Nucleo Kit
   7:Drivers/BSP/STM32G4xx_Nucleo/stm32g4xx_nucleo.c ****   *            from STMicroelectronics
   8:Drivers/BSP/STM32G4xx_Nucleo/stm32g4xx_nucleo.c ****   ******************************************************************************
   9:Drivers/BSP/STM32G4xx_Nucleo/stm32g4xx_nucleo.c ****   * @attention
  10:Drivers/BSP/STM32G4xx_Nucleo/stm32g4xx_nucleo.c ****   *
  11:Drivers/BSP/STM32G4xx_Nucleo/stm32g4xx_nucleo.c ****   * Copyright (c) 2019 STMicroelectronics.
  12:Drivers/BSP/STM32G4xx_Nucleo/stm32g4xx_nucleo.c ****   * All rights reserved.
  13:Drivers/BSP/STM32G4xx_Nucleo/stm32g4xx_nucleo.c ****   *
  14:Drivers/BSP/STM32G4xx_Nucleo/stm32g4xx_nucleo.c ****   * This software is licensed under terms that can be found in the LICENSE file
  15:Drivers/BSP/STM32G4xx_Nucleo/stm32g4xx_nucleo.c ****   * in the root directory of this software component.
  16:Drivers/BSP/STM32G4xx_Nucleo/stm32g4xx_nucleo.c ****   * If no LICENSE file comes with this software, it is provided AS-IS.
  17:Drivers/BSP/STM32G4xx_Nucleo/stm32g4xx_nucleo.c ****   *
  18:Drivers/BSP/STM32G4xx_Nucleo/stm32g4xx_nucleo.c ****   ******************************************************************************
  19:Drivers/BSP/STM32G4xx_Nucleo/stm32g4xx_nucleo.c ****   */
  20:Drivers/BSP/STM32G4xx_Nucleo/stm32g4xx_nucleo.c **** 
  21:Drivers/BSP/STM32G4xx_Nucleo/stm32g4xx_nucleo.c **** /* Includes ------------------------------------------------------------------*/
  22:Drivers/BSP/STM32G4xx_Nucleo/stm32g4xx_nucleo.c **** #include "stm32g4xx_nucleo.h"
  23:Drivers/BSP/STM32G4xx_Nucleo/stm32g4xx_nucleo.c **** #if defined(__ICCARM__)
  24:Drivers/BSP/STM32G4xx_Nucleo/stm32g4xx_nucleo.c **** #include <LowLevelIOInterface.h>
  25:Drivers/BSP/STM32G4xx_Nucleo/stm32g4xx_nucleo.c **** #endif /* __ICCARM__ */
  26:Drivers/BSP/STM32G4xx_Nucleo/stm32g4xx_nucleo.c **** 
  27:Drivers/BSP/STM32G4xx_Nucleo/stm32g4xx_nucleo.c **** /** @addtogroup BSP
  28:Drivers/BSP/STM32G4xx_Nucleo/stm32g4xx_nucleo.c ****   * @{
  29:Drivers/BSP/STM32G4xx_Nucleo/stm32g4xx_nucleo.c ****   */
  30:Drivers/BSP/STM32G4xx_Nucleo/stm32g4xx_nucleo.c **** 
ARM GAS  /tmp/ccvsXuDi.s 			page 2


  31:Drivers/BSP/STM32G4xx_Nucleo/stm32g4xx_nucleo.c **** /** @addtogroup STM32G4XX_NUCLEO
  32:Drivers/BSP/STM32G4xx_Nucleo/stm32g4xx_nucleo.c ****   * @{
  33:Drivers/BSP/STM32G4xx_Nucleo/stm32g4xx_nucleo.c ****   */
  34:Drivers/BSP/STM32G4xx_Nucleo/stm32g4xx_nucleo.c **** 
  35:Drivers/BSP/STM32G4xx_Nucleo/stm32g4xx_nucleo.c **** /** @addtogroup STM32G4XX_NUCLEO_LOW_LEVEL
  36:Drivers/BSP/STM32G4xx_Nucleo/stm32g4xx_nucleo.c ****   * @brief This file provides set of firmware functions to manage Leds and push-button
  37:Drivers/BSP/STM32G4xx_Nucleo/stm32g4xx_nucleo.c ****   *        available on STM32G4xx-Nucleo Kit from STMicroelectronics.
  38:Drivers/BSP/STM32G4xx_Nucleo/stm32g4xx_nucleo.c ****   * @{
  39:Drivers/BSP/STM32G4xx_Nucleo/stm32g4xx_nucleo.c ****   */
  40:Drivers/BSP/STM32G4xx_Nucleo/stm32g4xx_nucleo.c **** 
  41:Drivers/BSP/STM32G4xx_Nucleo/stm32g4xx_nucleo.c **** 
  42:Drivers/BSP/STM32G4xx_Nucleo/stm32g4xx_nucleo.c **** /** @defgroup STM32G4XX_NUCLEO_LOW_LEVEL_Exported_Variables LOW LEVEL Exported Variables
  43:Drivers/BSP/STM32G4xx_Nucleo/stm32g4xx_nucleo.c ****   * @{
  44:Drivers/BSP/STM32G4xx_Nucleo/stm32g4xx_nucleo.c ****   */
  45:Drivers/BSP/STM32G4xx_Nucleo/stm32g4xx_nucleo.c **** #if defined (USE_NUCLEO_64)
  46:Drivers/BSP/STM32G4xx_Nucleo/stm32g4xx_nucleo.c **** EXTI_HandleTypeDef hpb_exti[BUTTONn];
  47:Drivers/BSP/STM32G4xx_Nucleo/stm32g4xx_nucleo.c **** #endif /* USE_NUCLEO_64 */
  48:Drivers/BSP/STM32G4xx_Nucleo/stm32g4xx_nucleo.c **** #if (USE_BSP_COM_FEATURE > 0)
  49:Drivers/BSP/STM32G4xx_Nucleo/stm32g4xx_nucleo.c **** UART_HandleTypeDef hcom_uart[COMn];
  50:Drivers/BSP/STM32G4xx_Nucleo/stm32g4xx_nucleo.c **** #endif /* (USE_BSP_COM_FEATURE > 0) */
  51:Drivers/BSP/STM32G4xx_Nucleo/stm32g4xx_nucleo.c **** /**
  52:Drivers/BSP/STM32G4xx_Nucleo/stm32g4xx_nucleo.c ****   * @}
  53:Drivers/BSP/STM32G4xx_Nucleo/stm32g4xx_nucleo.c ****   */
  54:Drivers/BSP/STM32G4xx_Nucleo/stm32g4xx_nucleo.c **** 
  55:Drivers/BSP/STM32G4xx_Nucleo/stm32g4xx_nucleo.c **** /** @defgroup STM32G4XX_NUCLEO_LOW_LEVEL_Private_Defines LOW LEVEL Private Defines
  56:Drivers/BSP/STM32G4xx_Nucleo/stm32g4xx_nucleo.c ****   * @{
  57:Drivers/BSP/STM32G4xx_Nucleo/stm32g4xx_nucleo.c ****   */
  58:Drivers/BSP/STM32G4xx_Nucleo/stm32g4xx_nucleo.c **** 
  59:Drivers/BSP/STM32G4xx_Nucleo/stm32g4xx_nucleo.c **** /**
  60:Drivers/BSP/STM32G4xx_Nucleo/stm32g4xx_nucleo.c ****   * @}
  61:Drivers/BSP/STM32G4xx_Nucleo/stm32g4xx_nucleo.c ****   */
  62:Drivers/BSP/STM32G4xx_Nucleo/stm32g4xx_nucleo.c **** 
  63:Drivers/BSP/STM32G4xx_Nucleo/stm32g4xx_nucleo.c **** /** @defgroup STM32G4XX_NUCLEO_LOW_LEVEL_Private_TypesDefinitions LOW LEVEL Private Typedef
  64:Drivers/BSP/STM32G4xx_Nucleo/stm32g4xx_nucleo.c ****   * @{
  65:Drivers/BSP/STM32G4xx_Nucleo/stm32g4xx_nucleo.c ****   */
  66:Drivers/BSP/STM32G4xx_Nucleo/stm32g4xx_nucleo.c **** #if defined (USE_NUCLEO_64)
  67:Drivers/BSP/STM32G4xx_Nucleo/stm32g4xx_nucleo.c **** typedef void (* BSP_EXTI_LineCallback) (void);
  68:Drivers/BSP/STM32G4xx_Nucleo/stm32g4xx_nucleo.c **** #endif /* USE_NUCLEO_64 */
  69:Drivers/BSP/STM32G4xx_Nucleo/stm32g4xx_nucleo.c **** /**
  70:Drivers/BSP/STM32G4xx_Nucleo/stm32g4xx_nucleo.c ****   * @}
  71:Drivers/BSP/STM32G4xx_Nucleo/stm32g4xx_nucleo.c ****   */
  72:Drivers/BSP/STM32G4xx_Nucleo/stm32g4xx_nucleo.c **** 
  73:Drivers/BSP/STM32G4xx_Nucleo/stm32g4xx_nucleo.c **** /** @defgroup STM32G4XX_NUCLEO_LOW_LEVEL_Private_Variables LOW LEVEL Private Variables
  74:Drivers/BSP/STM32G4xx_Nucleo/stm32g4xx_nucleo.c ****   * @{
  75:Drivers/BSP/STM32G4xx_Nucleo/stm32g4xx_nucleo.c ****   */
  76:Drivers/BSP/STM32G4xx_Nucleo/stm32g4xx_nucleo.c **** static GPIO_TypeDef*   LED_PORT[LEDn] = {LED2_GPIO_PORT};
  77:Drivers/BSP/STM32G4xx_Nucleo/stm32g4xx_nucleo.c **** 
  78:Drivers/BSP/STM32G4xx_Nucleo/stm32g4xx_nucleo.c **** static const uint16_t  LED_PIN[LEDn] = {LED2_PIN};
  79:Drivers/BSP/STM32G4xx_Nucleo/stm32g4xx_nucleo.c **** 
  80:Drivers/BSP/STM32G4xx_Nucleo/stm32g4xx_nucleo.c **** #if defined (USE_NUCLEO_64)
  81:Drivers/BSP/STM32G4xx_Nucleo/stm32g4xx_nucleo.c **** static GPIO_TypeDef*   BUTTON_PORT[BUTTONn] = {USER_BUTTON_GPIO_PORT};
  82:Drivers/BSP/STM32G4xx_Nucleo/stm32g4xx_nucleo.c **** 
  83:Drivers/BSP/STM32G4xx_Nucleo/stm32g4xx_nucleo.c **** static const uint16_t  BUTTON_PIN[BUTTONn] = {USER_BUTTON_PIN};
  84:Drivers/BSP/STM32G4xx_Nucleo/stm32g4xx_nucleo.c **** 
  85:Drivers/BSP/STM32G4xx_Nucleo/stm32g4xx_nucleo.c **** static const IRQn_Type BUTTON_IRQn[BUTTONn] = {USER_BUTTON_EXTI_IRQn};
  86:Drivers/BSP/STM32G4xx_Nucleo/stm32g4xx_nucleo.c **** #endif /* USE_NUCLEO_64 */
  87:Drivers/BSP/STM32G4xx_Nucleo/stm32g4xx_nucleo.c **** 
ARM GAS  /tmp/ccvsXuDi.s 			page 3


  88:Drivers/BSP/STM32G4xx_Nucleo/stm32g4xx_nucleo.c **** #if (USE_BSP_COM_FEATURE > 0)
  89:Drivers/BSP/STM32G4xx_Nucleo/stm32g4xx_nucleo.c **** static USART_TypeDef*  COM_USART[COMn] = {COM1_UART};
  90:Drivers/BSP/STM32G4xx_Nucleo/stm32g4xx_nucleo.c **** 
  91:Drivers/BSP/STM32G4xx_Nucleo/stm32g4xx_nucleo.c **** #if (USE_COM_LOG > 0)
  92:Drivers/BSP/STM32G4xx_Nucleo/stm32g4xx_nucleo.c **** static COM_TypeDef COM_ActiveLogPort = COM1;
  93:Drivers/BSP/STM32G4xx_Nucleo/stm32g4xx_nucleo.c **** #endif
  94:Drivers/BSP/STM32G4xx_Nucleo/stm32g4xx_nucleo.c **** 
  95:Drivers/BSP/STM32G4xx_Nucleo/stm32g4xx_nucleo.c **** #if (USE_HAL_UART_REGISTER_CALLBACKS == 1)
  96:Drivers/BSP/STM32G4xx_Nucleo/stm32g4xx_nucleo.c **** static uint32_t IsComMspCbValid[COMn] = {0};
  97:Drivers/BSP/STM32G4xx_Nucleo/stm32g4xx_nucleo.c **** #endif
  98:Drivers/BSP/STM32G4xx_Nucleo/stm32g4xx_nucleo.c **** #endif /* (USE_BSP_COM_FEATURE > 0) */
  99:Drivers/BSP/STM32G4xx_Nucleo/stm32g4xx_nucleo.c **** 
 100:Drivers/BSP/STM32G4xx_Nucleo/stm32g4xx_nucleo.c **** /**
 101:Drivers/BSP/STM32G4xx_Nucleo/stm32g4xx_nucleo.c ****   * @}
 102:Drivers/BSP/STM32G4xx_Nucleo/stm32g4xx_nucleo.c ****   */
 103:Drivers/BSP/STM32G4xx_Nucleo/stm32g4xx_nucleo.c **** 
 104:Drivers/BSP/STM32G4xx_Nucleo/stm32g4xx_nucleo.c **** /** @defgroup STM32G4XX_NUCLEO_LOW_LEVEL_Private_Functions LOW LEVEL Private Functions
 105:Drivers/BSP/STM32G4xx_Nucleo/stm32g4xx_nucleo.c ****   * @{
 106:Drivers/BSP/STM32G4xx_Nucleo/stm32g4xx_nucleo.c ****   */
 107:Drivers/BSP/STM32G4xx_Nucleo/stm32g4xx_nucleo.c **** #if defined (USE_NUCLEO_64)
 108:Drivers/BSP/STM32G4xx_Nucleo/stm32g4xx_nucleo.c **** static void BUTTON_USER_EXTI_Callback(void);
 109:Drivers/BSP/STM32G4xx_Nucleo/stm32g4xx_nucleo.c **** #endif /* USE_NUCLEO_64 */
 110:Drivers/BSP/STM32G4xx_Nucleo/stm32g4xx_nucleo.c **** #if (USE_BSP_COM_FEATURE > 0)
 111:Drivers/BSP/STM32G4xx_Nucleo/stm32g4xx_nucleo.c **** static void COM1_MspInit(UART_HandleTypeDef *huart);
 112:Drivers/BSP/STM32G4xx_Nucleo/stm32g4xx_nucleo.c **** static void COM1_MspDeInit(UART_HandleTypeDef *huart);
 113:Drivers/BSP/STM32G4xx_Nucleo/stm32g4xx_nucleo.c **** #endif /* (USE_BSP_COM_FEATURE > 0) */
 114:Drivers/BSP/STM32G4xx_Nucleo/stm32g4xx_nucleo.c **** 
 115:Drivers/BSP/STM32G4xx_Nucleo/stm32g4xx_nucleo.c **** #if defined(__ICCARM__)
 116:Drivers/BSP/STM32G4xx_Nucleo/stm32g4xx_nucleo.c **** /* New definition from EWARM V9, compatible with EWARM8 */
 117:Drivers/BSP/STM32G4xx_Nucleo/stm32g4xx_nucleo.c **** int iar_fputc(int ch);
 118:Drivers/BSP/STM32G4xx_Nucleo/stm32g4xx_nucleo.c **** #define PUTCHAR_PROTOTYPE int iar_fputc(int ch)
 119:Drivers/BSP/STM32G4xx_Nucleo/stm32g4xx_nucleo.c **** #elif defined ( __CC_ARM ) || defined(__ARMCC_VERSION)
 120:Drivers/BSP/STM32G4xx_Nucleo/stm32g4xx_nucleo.c **** /* ARM Compiler 5/6*/
 121:Drivers/BSP/STM32G4xx_Nucleo/stm32g4xx_nucleo.c **** #define PUTCHAR_PROTOTYPE int fputc(int ch, FILE *f)
 122:Drivers/BSP/STM32G4xx_Nucleo/stm32g4xx_nucleo.c **** #elif defined(__GNUC__)
 123:Drivers/BSP/STM32G4xx_Nucleo/stm32g4xx_nucleo.c **** #define PUTCHAR_PROTOTYPE int __io_putchar(int ch)
 124:Drivers/BSP/STM32G4xx_Nucleo/stm32g4xx_nucleo.c **** #endif /* __ICCARM__ */
 125:Drivers/BSP/STM32G4xx_Nucleo/stm32g4xx_nucleo.c **** 
 126:Drivers/BSP/STM32G4xx_Nucleo/stm32g4xx_nucleo.c **** /**
 127:Drivers/BSP/STM32G4xx_Nucleo/stm32g4xx_nucleo.c ****   * @}
 128:Drivers/BSP/STM32G4xx_Nucleo/stm32g4xx_nucleo.c ****   */
 129:Drivers/BSP/STM32G4xx_Nucleo/stm32g4xx_nucleo.c **** 
 130:Drivers/BSP/STM32G4xx_Nucleo/stm32g4xx_nucleo.c **** /** @addtogroup STM32G4XX_NUCLEO_LOW_LEVEL_Exported_Functions
 131:Drivers/BSP/STM32G4xx_Nucleo/stm32g4xx_nucleo.c ****   * @{
 132:Drivers/BSP/STM32G4xx_Nucleo/stm32g4xx_nucleo.c ****   */
 133:Drivers/BSP/STM32G4xx_Nucleo/stm32g4xx_nucleo.c **** 
 134:Drivers/BSP/STM32G4xx_Nucleo/stm32g4xx_nucleo.c **** /**
 135:Drivers/BSP/STM32G4xx_Nucleo/stm32g4xx_nucleo.c ****   * @brief  This method returns the STM32G4xx NUCLEO BSP Driver revision
 136:Drivers/BSP/STM32G4xx_Nucleo/stm32g4xx_nucleo.c ****   * @retval version 0xXYZR (8bits for each decimal, R for RC)
 137:Drivers/BSP/STM32G4xx_Nucleo/stm32g4xx_nucleo.c ****   */
 138:Drivers/BSP/STM32G4xx_Nucleo/stm32g4xx_nucleo.c **** int32_t BSP_GetVersion(void)
 139:Drivers/BSP/STM32G4xx_Nucleo/stm32g4xx_nucleo.c **** {
 140:Drivers/BSP/STM32G4xx_Nucleo/stm32g4xx_nucleo.c ****   return (int32_t)STM32G4XX_NUCLEO_BSP_VERSION;
 141:Drivers/BSP/STM32G4xx_Nucleo/stm32g4xx_nucleo.c **** }
 142:Drivers/BSP/STM32G4xx_Nucleo/stm32g4xx_nucleo.c **** 
 143:Drivers/BSP/STM32G4xx_Nucleo/stm32g4xx_nucleo.c **** /**
 144:Drivers/BSP/STM32G4xx_Nucleo/stm32g4xx_nucleo.c ****   * @brief  This method returns the board name
ARM GAS  /tmp/ccvsXuDi.s 			page 4


 145:Drivers/BSP/STM32G4xx_Nucleo/stm32g4xx_nucleo.c ****   * @retval pointer to the board name string
 146:Drivers/BSP/STM32G4xx_Nucleo/stm32g4xx_nucleo.c ****   */
 147:Drivers/BSP/STM32G4xx_Nucleo/stm32g4xx_nucleo.c **** const uint8_t* BSP_GetBoardName(void)
 148:Drivers/BSP/STM32G4xx_Nucleo/stm32g4xx_nucleo.c **** {
 149:Drivers/BSP/STM32G4xx_Nucleo/stm32g4xx_nucleo.c ****   return (const uint8_t*)STM32G4XX_NUCLEO_BSP_BOARD_NAME;
 150:Drivers/BSP/STM32G4xx_Nucleo/stm32g4xx_nucleo.c **** }
 151:Drivers/BSP/STM32G4xx_Nucleo/stm32g4xx_nucleo.c **** 
 152:Drivers/BSP/STM32G4xx_Nucleo/stm32g4xx_nucleo.c **** /**
 153:Drivers/BSP/STM32G4xx_Nucleo/stm32g4xx_nucleo.c ****   * @brief  This method returns the board ID
 154:Drivers/BSP/STM32G4xx_Nucleo/stm32g4xx_nucleo.c ****   * @retval pointer to the board ID string
 155:Drivers/BSP/STM32G4xx_Nucleo/stm32g4xx_nucleo.c ****   */
 156:Drivers/BSP/STM32G4xx_Nucleo/stm32g4xx_nucleo.c **** const uint8_t* BSP_GetBoardID(void)
 157:Drivers/BSP/STM32G4xx_Nucleo/stm32g4xx_nucleo.c **** {
 158:Drivers/BSP/STM32G4xx_Nucleo/stm32g4xx_nucleo.c ****   return (const uint8_t*)STM32G4XX_NUCLEO_BSP_BOARD_ID;
 159:Drivers/BSP/STM32G4xx_Nucleo/stm32g4xx_nucleo.c **** }
 160:Drivers/BSP/STM32G4xx_Nucleo/stm32g4xx_nucleo.c **** 
 161:Drivers/BSP/STM32G4xx_Nucleo/stm32g4xx_nucleo.c **** /**
 162:Drivers/BSP/STM32G4xx_Nucleo/stm32g4xx_nucleo.c ****   * @brief  Configures LED GPIO.
 163:Drivers/BSP/STM32G4xx_Nucleo/stm32g4xx_nucleo.c ****   * @param  Led Specifies the Led to be configured.
 164:Drivers/BSP/STM32G4xx_Nucleo/stm32g4xx_nucleo.c ****   *         This parameter can be one of following parameters:
 165:Drivers/BSP/STM32G4xx_Nucleo/stm32g4xx_nucleo.c ****   *           @arg  LED2
 166:Drivers/BSP/STM32G4xx_Nucleo/stm32g4xx_nucleo.c ****   * @retval BSP status
 167:Drivers/BSP/STM32G4xx_Nucleo/stm32g4xx_nucleo.c ****   */
 168:Drivers/BSP/STM32G4xx_Nucleo/stm32g4xx_nucleo.c **** int32_t BSP_LED_Init(Led_TypeDef Led)
 169:Drivers/BSP/STM32G4xx_Nucleo/stm32g4xx_nucleo.c **** {
 170:Drivers/BSP/STM32G4xx_Nucleo/stm32g4xx_nucleo.c ****   GPIO_InitTypeDef  gpio_init_structure;
 171:Drivers/BSP/STM32G4xx_Nucleo/stm32g4xx_nucleo.c **** 
 172:Drivers/BSP/STM32G4xx_Nucleo/stm32g4xx_nucleo.c ****   /* Enable the GPIO LED Clock */
 173:Drivers/BSP/STM32G4xx_Nucleo/stm32g4xx_nucleo.c ****   LED2_GPIO_CLK_ENABLE();
 174:Drivers/BSP/STM32G4xx_Nucleo/stm32g4xx_nucleo.c **** 
 175:Drivers/BSP/STM32G4xx_Nucleo/stm32g4xx_nucleo.c ****   /* Configure the GPIO_LED pin */
 176:Drivers/BSP/STM32G4xx_Nucleo/stm32g4xx_nucleo.c ****   gpio_init_structure.Pin   = LED_PIN[Led];
 177:Drivers/BSP/STM32G4xx_Nucleo/stm32g4xx_nucleo.c ****   gpio_init_structure.Mode  = GPIO_MODE_OUTPUT_PP;
 178:Drivers/BSP/STM32G4xx_Nucleo/stm32g4xx_nucleo.c ****   gpio_init_structure.Pull  = GPIO_NOPULL;
 179:Drivers/BSP/STM32G4xx_Nucleo/stm32g4xx_nucleo.c ****   gpio_init_structure.Speed = GPIO_SPEED_FREQ_VERY_HIGH;
 180:Drivers/BSP/STM32G4xx_Nucleo/stm32g4xx_nucleo.c **** 
 181:Drivers/BSP/STM32G4xx_Nucleo/stm32g4xx_nucleo.c ****   HAL_GPIO_Init(LED_PORT[Led], &gpio_init_structure);
 182:Drivers/BSP/STM32G4xx_Nucleo/stm32g4xx_nucleo.c ****   HAL_GPIO_WritePin(LED_PORT[Led], LED_PIN[Led], GPIO_PIN_RESET);
 183:Drivers/BSP/STM32G4xx_Nucleo/stm32g4xx_nucleo.c **** 
 184:Drivers/BSP/STM32G4xx_Nucleo/stm32g4xx_nucleo.c ****   return BSP_ERROR_NONE;
 185:Drivers/BSP/STM32G4xx_Nucleo/stm32g4xx_nucleo.c **** }
 186:Drivers/BSP/STM32G4xx_Nucleo/stm32g4xx_nucleo.c **** 
 187:Drivers/BSP/STM32G4xx_Nucleo/stm32g4xx_nucleo.c **** /**
 188:Drivers/BSP/STM32G4xx_Nucleo/stm32g4xx_nucleo.c ****   * @brief  DeInit LEDs.
 189:Drivers/BSP/STM32G4xx_Nucleo/stm32g4xx_nucleo.c ****   * @param  Led Specifies the Led to be de-init.
 190:Drivers/BSP/STM32G4xx_Nucleo/stm32g4xx_nucleo.c ****   *         This parameter can be one of the following values:
 191:Drivers/BSP/STM32G4xx_Nucleo/stm32g4xx_nucleo.c ****   *           @arg  LED2
 192:Drivers/BSP/STM32G4xx_Nucleo/stm32g4xx_nucleo.c ****   * @note Led DeInit does not disable the GPIO clock
 193:Drivers/BSP/STM32G4xx_Nucleo/stm32g4xx_nucleo.c ****   * @retval BSP status
 194:Drivers/BSP/STM32G4xx_Nucleo/stm32g4xx_nucleo.c ****   */
 195:Drivers/BSP/STM32G4xx_Nucleo/stm32g4xx_nucleo.c **** int32_t BSP_LED_DeInit(Led_TypeDef Led)
 196:Drivers/BSP/STM32G4xx_Nucleo/stm32g4xx_nucleo.c **** {
 197:Drivers/BSP/STM32G4xx_Nucleo/stm32g4xx_nucleo.c ****   /* Turn off LED */
 198:Drivers/BSP/STM32G4xx_Nucleo/stm32g4xx_nucleo.c ****   HAL_GPIO_WritePin(LED_PORT[Led], LED_PIN[Led], GPIO_PIN_RESET);
 199:Drivers/BSP/STM32G4xx_Nucleo/stm32g4xx_nucleo.c **** 
 200:Drivers/BSP/STM32G4xx_Nucleo/stm32g4xx_nucleo.c ****   /* DeInit the GPIO_LED pin */
 201:Drivers/BSP/STM32G4xx_Nucleo/stm32g4xx_nucleo.c ****   HAL_GPIO_DeInit(LED_PORT[Led], LED_PIN[Led]);
ARM GAS  /tmp/ccvsXuDi.s 			page 5


 202:Drivers/BSP/STM32G4xx_Nucleo/stm32g4xx_nucleo.c **** 
 203:Drivers/BSP/STM32G4xx_Nucleo/stm32g4xx_nucleo.c ****   return BSP_ERROR_NONE;
 204:Drivers/BSP/STM32G4xx_Nucleo/stm32g4xx_nucleo.c **** }
 205:Drivers/BSP/STM32G4xx_Nucleo/stm32g4xx_nucleo.c **** 
 206:Drivers/BSP/STM32G4xx_Nucleo/stm32g4xx_nucleo.c **** /**
 207:Drivers/BSP/STM32G4xx_Nucleo/stm32g4xx_nucleo.c ****   * @brief  Turns selected LED On.
 208:Drivers/BSP/STM32G4xx_Nucleo/stm32g4xx_nucleo.c ****   * @param  Led Specifies the Led to be set on.
 209:Drivers/BSP/STM32G4xx_Nucleo/stm32g4xx_nucleo.c ****   *         This parameter can be one of following parameters:
 210:Drivers/BSP/STM32G4xx_Nucleo/stm32g4xx_nucleo.c ****   *           @arg  LED2
 211:Drivers/BSP/STM32G4xx_Nucleo/stm32g4xx_nucleo.c ****   * @retval BSP status
 212:Drivers/BSP/STM32G4xx_Nucleo/stm32g4xx_nucleo.c ****   */
 213:Drivers/BSP/STM32G4xx_Nucleo/stm32g4xx_nucleo.c **** int32_t BSP_LED_On(Led_TypeDef Led)
 214:Drivers/BSP/STM32G4xx_Nucleo/stm32g4xx_nucleo.c **** {
 215:Drivers/BSP/STM32G4xx_Nucleo/stm32g4xx_nucleo.c ****   HAL_GPIO_WritePin(LED_PORT[Led], LED_PIN[Led], GPIO_PIN_SET);
 216:Drivers/BSP/STM32G4xx_Nucleo/stm32g4xx_nucleo.c **** 
 217:Drivers/BSP/STM32G4xx_Nucleo/stm32g4xx_nucleo.c ****   return BSP_ERROR_NONE;
 218:Drivers/BSP/STM32G4xx_Nucleo/stm32g4xx_nucleo.c **** }
 219:Drivers/BSP/STM32G4xx_Nucleo/stm32g4xx_nucleo.c **** 
 220:Drivers/BSP/STM32G4xx_Nucleo/stm32g4xx_nucleo.c **** /**
 221:Drivers/BSP/STM32G4xx_Nucleo/stm32g4xx_nucleo.c ****   * @brief  Turns selected LED Off.
 222:Drivers/BSP/STM32G4xx_Nucleo/stm32g4xx_nucleo.c ****   * @param  Led Specifies the Led to be set off.
 223:Drivers/BSP/STM32G4xx_Nucleo/stm32g4xx_nucleo.c ****   *         This parameter can be one of following parameters:
 224:Drivers/BSP/STM32G4xx_Nucleo/stm32g4xx_nucleo.c ****   *           @arg  LED2
 225:Drivers/BSP/STM32G4xx_Nucleo/stm32g4xx_nucleo.c ****   * @retval BSP status
 226:Drivers/BSP/STM32G4xx_Nucleo/stm32g4xx_nucleo.c ****   */
 227:Drivers/BSP/STM32G4xx_Nucleo/stm32g4xx_nucleo.c **** int32_t BSP_LED_Off(Led_TypeDef Led)
 228:Drivers/BSP/STM32G4xx_Nucleo/stm32g4xx_nucleo.c **** {
 229:Drivers/BSP/STM32G4xx_Nucleo/stm32g4xx_nucleo.c ****   HAL_GPIO_WritePin(LED_PORT[Led], LED_PIN[Led], GPIO_PIN_RESET);
 230:Drivers/BSP/STM32G4xx_Nucleo/stm32g4xx_nucleo.c **** 
 231:Drivers/BSP/STM32G4xx_Nucleo/stm32g4xx_nucleo.c ****   return BSP_ERROR_NONE;
 232:Drivers/BSP/STM32G4xx_Nucleo/stm32g4xx_nucleo.c **** }
 233:Drivers/BSP/STM32G4xx_Nucleo/stm32g4xx_nucleo.c **** 
 234:Drivers/BSP/STM32G4xx_Nucleo/stm32g4xx_nucleo.c **** /**
 235:Drivers/BSP/STM32G4xx_Nucleo/stm32g4xx_nucleo.c ****   * @brief  Toggles the selected LED.
 236:Drivers/BSP/STM32G4xx_Nucleo/stm32g4xx_nucleo.c ****   * @param  Led Specifies the Led to be toggled.
 237:Drivers/BSP/STM32G4xx_Nucleo/stm32g4xx_nucleo.c ****   *         This parameter can be one of following parameters:
 238:Drivers/BSP/STM32G4xx_Nucleo/stm32g4xx_nucleo.c ****   *           @arg  LED2
 239:Drivers/BSP/STM32G4xx_Nucleo/stm32g4xx_nucleo.c ****   * @retval BSP status
 240:Drivers/BSP/STM32G4xx_Nucleo/stm32g4xx_nucleo.c ****   */
 241:Drivers/BSP/STM32G4xx_Nucleo/stm32g4xx_nucleo.c **** int32_t BSP_LED_Toggle(Led_TypeDef Led)
 242:Drivers/BSP/STM32G4xx_Nucleo/stm32g4xx_nucleo.c **** {
 243:Drivers/BSP/STM32G4xx_Nucleo/stm32g4xx_nucleo.c ****   HAL_GPIO_TogglePin(LED_PORT[Led], LED_PIN[Led]);
 244:Drivers/BSP/STM32G4xx_Nucleo/stm32g4xx_nucleo.c **** 
 245:Drivers/BSP/STM32G4xx_Nucleo/stm32g4xx_nucleo.c ****   return BSP_ERROR_NONE;
 246:Drivers/BSP/STM32G4xx_Nucleo/stm32g4xx_nucleo.c **** }
 247:Drivers/BSP/STM32G4xx_Nucleo/stm32g4xx_nucleo.c **** 
 248:Drivers/BSP/STM32G4xx_Nucleo/stm32g4xx_nucleo.c **** /**
 249:Drivers/BSP/STM32G4xx_Nucleo/stm32g4xx_nucleo.c ****   * @brief  Get the status of the selected LED.
 250:Drivers/BSP/STM32G4xx_Nucleo/stm32g4xx_nucleo.c ****   * @param  Led Specifies the Led to get its state.
 251:Drivers/BSP/STM32G4xx_Nucleo/stm32g4xx_nucleo.c ****   *         This parameter can be one of following parameters:
 252:Drivers/BSP/STM32G4xx_Nucleo/stm32g4xx_nucleo.c ****   *           @arg  LED2
 253:Drivers/BSP/STM32G4xx_Nucleo/stm32g4xx_nucleo.c ****   * @retval LED status
 254:Drivers/BSP/STM32G4xx_Nucleo/stm32g4xx_nucleo.c ****   */
 255:Drivers/BSP/STM32G4xx_Nucleo/stm32g4xx_nucleo.c **** int32_t BSP_LED_GetState(Led_TypeDef Led)
 256:Drivers/BSP/STM32G4xx_Nucleo/stm32g4xx_nucleo.c **** {
 257:Drivers/BSP/STM32G4xx_Nucleo/stm32g4xx_nucleo.c ****   return (int32_t)HAL_GPIO_ReadPin(LED_PORT[Led], LED_PIN[Led]);
 258:Drivers/BSP/STM32G4xx_Nucleo/stm32g4xx_nucleo.c **** }
ARM GAS  /tmp/ccvsXuDi.s 			page 6


 259:Drivers/BSP/STM32G4xx_Nucleo/stm32g4xx_nucleo.c **** 
 260:Drivers/BSP/STM32G4xx_Nucleo/stm32g4xx_nucleo.c **** #if defined (USE_NUCLEO_64)
 261:Drivers/BSP/STM32G4xx_Nucleo/stm32g4xx_nucleo.c **** /**
 262:Drivers/BSP/STM32G4xx_Nucleo/stm32g4xx_nucleo.c ****   * @brief  Configures Button GPIO and EXTI Line.
 263:Drivers/BSP/STM32G4xx_Nucleo/stm32g4xx_nucleo.c ****   * @param  Button Button to be configured.
 264:Drivers/BSP/STM32G4xx_Nucleo/stm32g4xx_nucleo.c ****   *         This parameter can be one of the following values:
 265:Drivers/BSP/STM32G4xx_Nucleo/stm32g4xx_nucleo.c ****   *           @arg  BUTTON_USER: User Push Button
 266:Drivers/BSP/STM32G4xx_Nucleo/stm32g4xx_nucleo.c ****   * @param  ButtonMode Button mode.
 267:Drivers/BSP/STM32G4xx_Nucleo/stm32g4xx_nucleo.c ****   *         This parameter can be one of following parameters:
 268:Drivers/BSP/STM32G4xx_Nucleo/stm32g4xx_nucleo.c ****   *           @arg BUTTON_MODE_GPIO: Button will be used as simple IO
 269:Drivers/BSP/STM32G4xx_Nucleo/stm32g4xx_nucleo.c ****   *           @arg BUTTON_MODE_EXTI: Button will be connected to EXTI line
 270:Drivers/BSP/STM32G4xx_Nucleo/stm32g4xx_nucleo.c ****   *                                  with interrupt generation capability
 271:Drivers/BSP/STM32G4xx_Nucleo/stm32g4xx_nucleo.c ****   * @retval BSP status
 272:Drivers/BSP/STM32G4xx_Nucleo/stm32g4xx_nucleo.c ****   */
 273:Drivers/BSP/STM32G4xx_Nucleo/stm32g4xx_nucleo.c **** int32_t BSP_PB_Init(Button_TypeDef Button, ButtonMode_TypeDef ButtonMode)
 274:Drivers/BSP/STM32G4xx_Nucleo/stm32g4xx_nucleo.c **** {
 275:Drivers/BSP/STM32G4xx_Nucleo/stm32g4xx_nucleo.c ****   GPIO_InitTypeDef gpio_init_structure;
 276:Drivers/BSP/STM32G4xx_Nucleo/stm32g4xx_nucleo.c ****   static BSP_EXTI_LineCallback ButtonCallback[BUTTONn] = {BUTTON_USER_EXTI_Callback};
 277:Drivers/BSP/STM32G4xx_Nucleo/stm32g4xx_nucleo.c ****   static uint32_t BSP_BUTTON_PRIO [BUTTONn] = {BSP_BUTTON_USER_IT_PRIORITY};
 278:Drivers/BSP/STM32G4xx_Nucleo/stm32g4xx_nucleo.c ****   static const uint32_t BUTTON_EXTI_LINE[BUTTONn] = {USER_BUTTON_EXTI_LINE};
 279:Drivers/BSP/STM32G4xx_Nucleo/stm32g4xx_nucleo.c **** 
 280:Drivers/BSP/STM32G4xx_Nucleo/stm32g4xx_nucleo.c ****   /* Enable the BUTTON Clock */
 281:Drivers/BSP/STM32G4xx_Nucleo/stm32g4xx_nucleo.c ****   USER_BUTTON_GPIO_CLK_ENABLE();
 282:Drivers/BSP/STM32G4xx_Nucleo/stm32g4xx_nucleo.c **** 
 283:Drivers/BSP/STM32G4xx_Nucleo/stm32g4xx_nucleo.c ****   gpio_init_structure.Pin = BUTTON_PIN[Button];
 284:Drivers/BSP/STM32G4xx_Nucleo/stm32g4xx_nucleo.c ****   gpio_init_structure.Pull = GPIO_PULLDOWN;
 285:Drivers/BSP/STM32G4xx_Nucleo/stm32g4xx_nucleo.c ****   gpio_init_structure.Speed = GPIO_SPEED_FREQ_HIGH;
 286:Drivers/BSP/STM32G4xx_Nucleo/stm32g4xx_nucleo.c **** 
 287:Drivers/BSP/STM32G4xx_Nucleo/stm32g4xx_nucleo.c ****   if(ButtonMode == BUTTON_MODE_GPIO)
 288:Drivers/BSP/STM32G4xx_Nucleo/stm32g4xx_nucleo.c ****   {
 289:Drivers/BSP/STM32G4xx_Nucleo/stm32g4xx_nucleo.c ****     /* Configure Button pin as input */
 290:Drivers/BSP/STM32G4xx_Nucleo/stm32g4xx_nucleo.c ****     gpio_init_structure.Mode = GPIO_MODE_INPUT;
 291:Drivers/BSP/STM32G4xx_Nucleo/stm32g4xx_nucleo.c ****     HAL_GPIO_Init(BUTTON_PORT[Button], &gpio_init_structure);
 292:Drivers/BSP/STM32G4xx_Nucleo/stm32g4xx_nucleo.c ****   }
 293:Drivers/BSP/STM32G4xx_Nucleo/stm32g4xx_nucleo.c ****   else /* (ButtonMode == BUTTON_MODE_EXTI) */
 294:Drivers/BSP/STM32G4xx_Nucleo/stm32g4xx_nucleo.c ****   {
 295:Drivers/BSP/STM32G4xx_Nucleo/stm32g4xx_nucleo.c ****     /* Configure Button pin as input with External interrupt */
 296:Drivers/BSP/STM32G4xx_Nucleo/stm32g4xx_nucleo.c ****     gpio_init_structure.Mode = GPIO_MODE_IT_RISING;
 297:Drivers/BSP/STM32G4xx_Nucleo/stm32g4xx_nucleo.c **** 
 298:Drivers/BSP/STM32G4xx_Nucleo/stm32g4xx_nucleo.c ****     HAL_GPIO_Init(BUTTON_PORT[Button], &gpio_init_structure);
 299:Drivers/BSP/STM32G4xx_Nucleo/stm32g4xx_nucleo.c **** 
 300:Drivers/BSP/STM32G4xx_Nucleo/stm32g4xx_nucleo.c ****     (void)HAL_EXTI_GetHandle(&hpb_exti[Button], BUTTON_EXTI_LINE[Button]);
 301:Drivers/BSP/STM32G4xx_Nucleo/stm32g4xx_nucleo.c ****     (void)HAL_EXTI_RegisterCallback(&hpb_exti[Button],  HAL_EXTI_COMMON_CB_ID, ButtonCallback[Butto
 302:Drivers/BSP/STM32G4xx_Nucleo/stm32g4xx_nucleo.c **** 
 303:Drivers/BSP/STM32G4xx_Nucleo/stm32g4xx_nucleo.c ****     /* Enable and set Button EXTI Interrupt to the lowest priority */
 304:Drivers/BSP/STM32G4xx_Nucleo/stm32g4xx_nucleo.c ****     HAL_NVIC_SetPriority((BUTTON_IRQn[Button]), BSP_BUTTON_PRIO[Button], 0x00);
 305:Drivers/BSP/STM32G4xx_Nucleo/stm32g4xx_nucleo.c ****     HAL_NVIC_EnableIRQ((BUTTON_IRQn[Button]));
 306:Drivers/BSP/STM32G4xx_Nucleo/stm32g4xx_nucleo.c ****   }
 307:Drivers/BSP/STM32G4xx_Nucleo/stm32g4xx_nucleo.c **** 
 308:Drivers/BSP/STM32G4xx_Nucleo/stm32g4xx_nucleo.c ****   return BSP_ERROR_NONE;
 309:Drivers/BSP/STM32G4xx_Nucleo/stm32g4xx_nucleo.c **** }
 310:Drivers/BSP/STM32G4xx_Nucleo/stm32g4xx_nucleo.c **** 
 311:Drivers/BSP/STM32G4xx_Nucleo/stm32g4xx_nucleo.c **** /**
 312:Drivers/BSP/STM32G4xx_Nucleo/stm32g4xx_nucleo.c ****   * @brief  Push Button DeInit.
 313:Drivers/BSP/STM32G4xx_Nucleo/stm32g4xx_nucleo.c ****   * @param  Button Button to be configured
 314:Drivers/BSP/STM32G4xx_Nucleo/stm32g4xx_nucleo.c ****   *          This parameter can be one of the following values:
 315:Drivers/BSP/STM32G4xx_Nucleo/stm32g4xx_nucleo.c ****   *            @arg  BUTTON_USER: User Push Button
ARM GAS  /tmp/ccvsXuDi.s 			page 7


 316:Drivers/BSP/STM32G4xx_Nucleo/stm32g4xx_nucleo.c ****   * @note PB DeInit does not disable the GPIO clock
 317:Drivers/BSP/STM32G4xx_Nucleo/stm32g4xx_nucleo.c ****   * @retval BSP status
 318:Drivers/BSP/STM32G4xx_Nucleo/stm32g4xx_nucleo.c ****   */
 319:Drivers/BSP/STM32G4xx_Nucleo/stm32g4xx_nucleo.c **** int32_t BSP_PB_DeInit(Button_TypeDef Button)
 320:Drivers/BSP/STM32G4xx_Nucleo/stm32g4xx_nucleo.c **** {
 321:Drivers/BSP/STM32G4xx_Nucleo/stm32g4xx_nucleo.c ****   HAL_NVIC_DisableIRQ((BUTTON_IRQn[Button]));
 322:Drivers/BSP/STM32G4xx_Nucleo/stm32g4xx_nucleo.c ****   HAL_GPIO_DeInit(BUTTON_PORT[Button], BUTTON_PIN[Button]);
 323:Drivers/BSP/STM32G4xx_Nucleo/stm32g4xx_nucleo.c **** 
 324:Drivers/BSP/STM32G4xx_Nucleo/stm32g4xx_nucleo.c ****   return BSP_ERROR_NONE;
 325:Drivers/BSP/STM32G4xx_Nucleo/stm32g4xx_nucleo.c **** }
 326:Drivers/BSP/STM32G4xx_Nucleo/stm32g4xx_nucleo.c **** 
 327:Drivers/BSP/STM32G4xx_Nucleo/stm32g4xx_nucleo.c **** /**
 328:Drivers/BSP/STM32G4xx_Nucleo/stm32g4xx_nucleo.c ****   * @brief  Returns the selected Button state.
 329:Drivers/BSP/STM32G4xx_Nucleo/stm32g4xx_nucleo.c ****   * @param  Button Button to be checked.
 330:Drivers/BSP/STM32G4xx_Nucleo/stm32g4xx_nucleo.c ****   *          This parameter can be one of the following values:
 331:Drivers/BSP/STM32G4xx_Nucleo/stm32g4xx_nucleo.c ****   *            @arg  BUTTON_USER: User Push Button
 332:Drivers/BSP/STM32G4xx_Nucleo/stm32g4xx_nucleo.c ****   * @retval The Button GPIO pin value
 333:Drivers/BSP/STM32G4xx_Nucleo/stm32g4xx_nucleo.c ****   */
 334:Drivers/BSP/STM32G4xx_Nucleo/stm32g4xx_nucleo.c **** int32_t BSP_PB_GetState(Button_TypeDef Button)
 335:Drivers/BSP/STM32G4xx_Nucleo/stm32g4xx_nucleo.c **** {
 336:Drivers/BSP/STM32G4xx_Nucleo/stm32g4xx_nucleo.c ****   return (int32_t)HAL_GPIO_ReadPin(BUTTON_PORT[Button], BUTTON_PIN[Button]);
 337:Drivers/BSP/STM32G4xx_Nucleo/stm32g4xx_nucleo.c **** }
 338:Drivers/BSP/STM32G4xx_Nucleo/stm32g4xx_nucleo.c **** 
 339:Drivers/BSP/STM32G4xx_Nucleo/stm32g4xx_nucleo.c **** /**
 340:Drivers/BSP/STM32G4xx_Nucleo/stm32g4xx_nucleo.c ****   * @brief  This function handles Push-Button interrupt requests.
 341:Drivers/BSP/STM32G4xx_Nucleo/stm32g4xx_nucleo.c ****   * @param  Button Specifies the pin connected EXTI line
 342:Drivers/BSP/STM32G4xx_Nucleo/stm32g4xx_nucleo.c ****   * @retval None
 343:Drivers/BSP/STM32G4xx_Nucleo/stm32g4xx_nucleo.c ****   */
 344:Drivers/BSP/STM32G4xx_Nucleo/stm32g4xx_nucleo.c **** void BSP_PB_IRQHandler(Button_TypeDef Button)
 345:Drivers/BSP/STM32G4xx_Nucleo/stm32g4xx_nucleo.c **** {
 346:Drivers/BSP/STM32G4xx_Nucleo/stm32g4xx_nucleo.c ****   HAL_EXTI_IRQHandler(&hpb_exti[Button]);
 347:Drivers/BSP/STM32G4xx_Nucleo/stm32g4xx_nucleo.c **** }
 348:Drivers/BSP/STM32G4xx_Nucleo/stm32g4xx_nucleo.c **** 
 349:Drivers/BSP/STM32G4xx_Nucleo/stm32g4xx_nucleo.c **** /**
 350:Drivers/BSP/STM32G4xx_Nucleo/stm32g4xx_nucleo.c ****   * @brief  BSP Push Button callback
 351:Drivers/BSP/STM32G4xx_Nucleo/stm32g4xx_nucleo.c ****   * @param  Button Specifies the pin connected EXTI line
 352:Drivers/BSP/STM32G4xx_Nucleo/stm32g4xx_nucleo.c ****   * @retval None.
 353:Drivers/BSP/STM32G4xx_Nucleo/stm32g4xx_nucleo.c ****   */
 354:Drivers/BSP/STM32G4xx_Nucleo/stm32g4xx_nucleo.c **** __weak void BSP_PB_Callback(Button_TypeDef Button)
 355:Drivers/BSP/STM32G4xx_Nucleo/stm32g4xx_nucleo.c **** {
 356:Drivers/BSP/STM32G4xx_Nucleo/stm32g4xx_nucleo.c ****   /* Prevent unused argument(s) compilation warning */
 357:Drivers/BSP/STM32G4xx_Nucleo/stm32g4xx_nucleo.c ****   UNUSED(Button);
 358:Drivers/BSP/STM32G4xx_Nucleo/stm32g4xx_nucleo.c **** 
 359:Drivers/BSP/STM32G4xx_Nucleo/stm32g4xx_nucleo.c ****   /* This function should be implemented by the user application.
 360:Drivers/BSP/STM32G4xx_Nucleo/stm32g4xx_nucleo.c ****      It is called into this driver when an event on Button is triggered. */
 361:Drivers/BSP/STM32G4xx_Nucleo/stm32g4xx_nucleo.c **** }
 362:Drivers/BSP/STM32G4xx_Nucleo/stm32g4xx_nucleo.c **** #endif /* USE_NUCLEO_64 */
 363:Drivers/BSP/STM32G4xx_Nucleo/stm32g4xx_nucleo.c **** 
 364:Drivers/BSP/STM32G4xx_Nucleo/stm32g4xx_nucleo.c **** #if (USE_BSP_COM_FEATURE > 0)
 365:Drivers/BSP/STM32G4xx_Nucleo/stm32g4xx_nucleo.c **** /**
 366:Drivers/BSP/STM32G4xx_Nucleo/stm32g4xx_nucleo.c ****   * @brief  Configures COM port.
 367:Drivers/BSP/STM32G4xx_Nucleo/stm32g4xx_nucleo.c ****   * @param  COM COM port to be configured.
 368:Drivers/BSP/STM32G4xx_Nucleo/stm32g4xx_nucleo.c ****   *         This parameter can be COM1
 369:Drivers/BSP/STM32G4xx_Nucleo/stm32g4xx_nucleo.c ****   * @param  COM_Init Pointer to a UART_HandleTypeDef structure that contains the
 370:Drivers/BSP/STM32G4xx_Nucleo/stm32g4xx_nucleo.c ****   *                  configuration information for the specified USART peripheral.
 371:Drivers/BSP/STM32G4xx_Nucleo/stm32g4xx_nucleo.c ****   * @retval BSP error code
 372:Drivers/BSP/STM32G4xx_Nucleo/stm32g4xx_nucleo.c ****   */
ARM GAS  /tmp/ccvsXuDi.s 			page 8


 373:Drivers/BSP/STM32G4xx_Nucleo/stm32g4xx_nucleo.c **** int32_t BSP_COM_Init(COM_TypeDef COM, COM_InitTypeDef *COM_Init)
 374:Drivers/BSP/STM32G4xx_Nucleo/stm32g4xx_nucleo.c **** {
 375:Drivers/BSP/STM32G4xx_Nucleo/stm32g4xx_nucleo.c ****   int32_t ret = BSP_ERROR_NONE;
 376:Drivers/BSP/STM32G4xx_Nucleo/stm32g4xx_nucleo.c **** 
 377:Drivers/BSP/STM32G4xx_Nucleo/stm32g4xx_nucleo.c ****   if(COM > COMn)
 378:Drivers/BSP/STM32G4xx_Nucleo/stm32g4xx_nucleo.c ****   {
 379:Drivers/BSP/STM32G4xx_Nucleo/stm32g4xx_nucleo.c ****     ret = BSP_ERROR_WRONG_PARAM;
 380:Drivers/BSP/STM32G4xx_Nucleo/stm32g4xx_nucleo.c ****   }
 381:Drivers/BSP/STM32G4xx_Nucleo/stm32g4xx_nucleo.c ****   else
 382:Drivers/BSP/STM32G4xx_Nucleo/stm32g4xx_nucleo.c ****   {
 383:Drivers/BSP/STM32G4xx_Nucleo/stm32g4xx_nucleo.c **** #if (USE_HAL_UART_REGISTER_CALLBACKS == 0)
 384:Drivers/BSP/STM32G4xx_Nucleo/stm32g4xx_nucleo.c ****     /* Init the UART Msp */
 385:Drivers/BSP/STM32G4xx_Nucleo/stm32g4xx_nucleo.c ****     COM1_MspInit(&hcom_uart[COM]);
 386:Drivers/BSP/STM32G4xx_Nucleo/stm32g4xx_nucleo.c **** #else
 387:Drivers/BSP/STM32G4xx_Nucleo/stm32g4xx_nucleo.c ****     if(IsComMspCbValid == 0U)
 388:Drivers/BSP/STM32G4xx_Nucleo/stm32g4xx_nucleo.c ****     {
 389:Drivers/BSP/STM32G4xx_Nucleo/stm32g4xx_nucleo.c ****       if(BSP_COM_RegisterDefaultMspCallbacks(COM) != BSP_ERROR_NONE)
 390:Drivers/BSP/STM32G4xx_Nucleo/stm32g4xx_nucleo.c ****       {
 391:Drivers/BSP/STM32G4xx_Nucleo/stm32g4xx_nucleo.c ****         return BSP_ERROR_MSP_FAILURE;
 392:Drivers/BSP/STM32G4xx_Nucleo/stm32g4xx_nucleo.c ****       }
 393:Drivers/BSP/STM32G4xx_Nucleo/stm32g4xx_nucleo.c ****     }
 394:Drivers/BSP/STM32G4xx_Nucleo/stm32g4xx_nucleo.c **** #endif
 395:Drivers/BSP/STM32G4xx_Nucleo/stm32g4xx_nucleo.c **** 
 396:Drivers/BSP/STM32G4xx_Nucleo/stm32g4xx_nucleo.c ****     if(MX_LPUART1_Init(&hcom_uart[COM], COM_Init) != HAL_OK)
 397:Drivers/BSP/STM32G4xx_Nucleo/stm32g4xx_nucleo.c ****     {
 398:Drivers/BSP/STM32G4xx_Nucleo/stm32g4xx_nucleo.c ****       return BSP_ERROR_PERIPH_FAILURE;
 399:Drivers/BSP/STM32G4xx_Nucleo/stm32g4xx_nucleo.c ****     }
 400:Drivers/BSP/STM32G4xx_Nucleo/stm32g4xx_nucleo.c ****   }
 401:Drivers/BSP/STM32G4xx_Nucleo/stm32g4xx_nucleo.c **** 
 402:Drivers/BSP/STM32G4xx_Nucleo/stm32g4xx_nucleo.c ****   return ret;
 403:Drivers/BSP/STM32G4xx_Nucleo/stm32g4xx_nucleo.c **** }
 404:Drivers/BSP/STM32G4xx_Nucleo/stm32g4xx_nucleo.c **** 
 405:Drivers/BSP/STM32G4xx_Nucleo/stm32g4xx_nucleo.c **** /**
 406:Drivers/BSP/STM32G4xx_Nucleo/stm32g4xx_nucleo.c ****   * @brief  DeInit COM port.
 407:Drivers/BSP/STM32G4xx_Nucleo/stm32g4xx_nucleo.c ****   * @param  COM COM port to be configured.
 408:Drivers/BSP/STM32G4xx_Nucleo/stm32g4xx_nucleo.c ****   *          This parameter can be COM1
 409:Drivers/BSP/STM32G4xx_Nucleo/stm32g4xx_nucleo.c ****   * @retval BSP status
 410:Drivers/BSP/STM32G4xx_Nucleo/stm32g4xx_nucleo.c ****   */
 411:Drivers/BSP/STM32G4xx_Nucleo/stm32g4xx_nucleo.c **** int32_t BSP_COM_DeInit(COM_TypeDef COM)
 412:Drivers/BSP/STM32G4xx_Nucleo/stm32g4xx_nucleo.c **** {
 413:Drivers/BSP/STM32G4xx_Nucleo/stm32g4xx_nucleo.c ****   int32_t ret = BSP_ERROR_NONE;
 414:Drivers/BSP/STM32G4xx_Nucleo/stm32g4xx_nucleo.c **** 
 415:Drivers/BSP/STM32G4xx_Nucleo/stm32g4xx_nucleo.c ****   if(COM >= COMn)
 416:Drivers/BSP/STM32G4xx_Nucleo/stm32g4xx_nucleo.c ****   {
 417:Drivers/BSP/STM32G4xx_Nucleo/stm32g4xx_nucleo.c ****     ret = BSP_ERROR_WRONG_PARAM;
 418:Drivers/BSP/STM32G4xx_Nucleo/stm32g4xx_nucleo.c ****   }
 419:Drivers/BSP/STM32G4xx_Nucleo/stm32g4xx_nucleo.c ****   else
 420:Drivers/BSP/STM32G4xx_Nucleo/stm32g4xx_nucleo.c ****   {
 421:Drivers/BSP/STM32G4xx_Nucleo/stm32g4xx_nucleo.c ****     /* USART configuration */
 422:Drivers/BSP/STM32G4xx_Nucleo/stm32g4xx_nucleo.c ****     hcom_uart[COM].Instance = COM_USART[COM];
 423:Drivers/BSP/STM32G4xx_Nucleo/stm32g4xx_nucleo.c **** 
 424:Drivers/BSP/STM32G4xx_Nucleo/stm32g4xx_nucleo.c **** #if (USE_HAL_UART_REGISTER_CALLBACKS == 0)
 425:Drivers/BSP/STM32G4xx_Nucleo/stm32g4xx_nucleo.c ****     COM1_MspDeInit(&hcom_uart[COM]);
 426:Drivers/BSP/STM32G4xx_Nucleo/stm32g4xx_nucleo.c **** #endif /* (USE_HAL_UART_REGISTER_CALLBACKS == 0) */
 427:Drivers/BSP/STM32G4xx_Nucleo/stm32g4xx_nucleo.c **** 
 428:Drivers/BSP/STM32G4xx_Nucleo/stm32g4xx_nucleo.c ****     if(HAL_UART_DeInit(&hcom_uart[COM]) != HAL_OK)
 429:Drivers/BSP/STM32G4xx_Nucleo/stm32g4xx_nucleo.c ****     {
ARM GAS  /tmp/ccvsXuDi.s 			page 9


 430:Drivers/BSP/STM32G4xx_Nucleo/stm32g4xx_nucleo.c ****       return BSP_ERROR_PERIPH_FAILURE;
 431:Drivers/BSP/STM32G4xx_Nucleo/stm32g4xx_nucleo.c ****     }
 432:Drivers/BSP/STM32G4xx_Nucleo/stm32g4xx_nucleo.c ****   }
 433:Drivers/BSP/STM32G4xx_Nucleo/stm32g4xx_nucleo.c **** 
 434:Drivers/BSP/STM32G4xx_Nucleo/stm32g4xx_nucleo.c ****   return ret;
 435:Drivers/BSP/STM32G4xx_Nucleo/stm32g4xx_nucleo.c **** }
 436:Drivers/BSP/STM32G4xx_Nucleo/stm32g4xx_nucleo.c **** 
 437:Drivers/BSP/STM32G4xx_Nucleo/stm32g4xx_nucleo.c **** /**
 438:Drivers/BSP/STM32G4xx_Nucleo/stm32g4xx_nucleo.c ****   * @brief  Configures COM port.
 439:Drivers/BSP/STM32G4xx_Nucleo/stm32g4xx_nucleo.c ****   * @param  huart USART handle
 440:Drivers/BSP/STM32G4xx_Nucleo/stm32g4xx_nucleo.c ****   * @param  COM_Init Pointer to a UART_HandleTypeDef structure that contains the
 441:Drivers/BSP/STM32G4xx_Nucleo/stm32g4xx_nucleo.c ****   *                  configuration information for the specified USART peripheral.
 442:Drivers/BSP/STM32G4xx_Nucleo/stm32g4xx_nucleo.c ****   * @retval HAL error code
 443:Drivers/BSP/STM32G4xx_Nucleo/stm32g4xx_nucleo.c ****   */
 444:Drivers/BSP/STM32G4xx_Nucleo/stm32g4xx_nucleo.c **** __weak HAL_StatusTypeDef MX_LPUART1_Init(UART_HandleTypeDef *huart, MX_UART_InitTypeDef *COM_Init)
 445:Drivers/BSP/STM32G4xx_Nucleo/stm32g4xx_nucleo.c **** {
 446:Drivers/BSP/STM32G4xx_Nucleo/stm32g4xx_nucleo.c ****   /* USART configuration */
 447:Drivers/BSP/STM32G4xx_Nucleo/stm32g4xx_nucleo.c ****  huart->Instance          = COM_USART[COM1];
 448:Drivers/BSP/STM32G4xx_Nucleo/stm32g4xx_nucleo.c ****  huart->Init.BaudRate     = COM_Init->BaudRate;
 449:Drivers/BSP/STM32G4xx_Nucleo/stm32g4xx_nucleo.c ****  huart->Init.Mode         = UART_MODE_TX_RX;
 450:Drivers/BSP/STM32G4xx_Nucleo/stm32g4xx_nucleo.c ****  huart->Init.Parity       = (uint32_t)COM_Init->Parity;
 451:Drivers/BSP/STM32G4xx_Nucleo/stm32g4xx_nucleo.c ****  huart->Init.WordLength   = COM_Init->WordLength;
 452:Drivers/BSP/STM32G4xx_Nucleo/stm32g4xx_nucleo.c ****  huart->Init.StopBits     = (uint32_t)COM_Init->StopBits;
 453:Drivers/BSP/STM32G4xx_Nucleo/stm32g4xx_nucleo.c ****  huart->Init.HwFlowCtl    = (uint32_t)COM_Init->HwFlowCtl;
 454:Drivers/BSP/STM32G4xx_Nucleo/stm32g4xx_nucleo.c ****  huart->Init.OverSampling = UART_OVERSAMPLING_8;
 455:Drivers/BSP/STM32G4xx_Nucleo/stm32g4xx_nucleo.c **** 
 456:Drivers/BSP/STM32G4xx_Nucleo/stm32g4xx_nucleo.c ****  return HAL_UART_Init(huart);
 457:Drivers/BSP/STM32G4xx_Nucleo/stm32g4xx_nucleo.c **** }
 458:Drivers/BSP/STM32G4xx_Nucleo/stm32g4xx_nucleo.c **** 
 459:Drivers/BSP/STM32G4xx_Nucleo/stm32g4xx_nucleo.c **** #if (USE_HAL_UART_REGISTER_CALLBACKS == 1)
 460:Drivers/BSP/STM32G4xx_Nucleo/stm32g4xx_nucleo.c **** /**
 461:Drivers/BSP/STM32G4xx_Nucleo/stm32g4xx_nucleo.c ****   * @brief Register Default COM Msp Callbacks
 462:Drivers/BSP/STM32G4xx_Nucleo/stm32g4xx_nucleo.c ****   * @param  COM COM port to be configured.
 463:Drivers/BSP/STM32G4xx_Nucleo/stm32g4xx_nucleo.c ****   *          This parameter can be COM1
 464:Drivers/BSP/STM32G4xx_Nucleo/stm32g4xx_nucleo.c ****   * @retval BSP status
 465:Drivers/BSP/STM32G4xx_Nucleo/stm32g4xx_nucleo.c ****   */
 466:Drivers/BSP/STM32G4xx_Nucleo/stm32g4xx_nucleo.c **** int32_t BSP_COM_RegisterDefaultMspCallbacks(COM_TypeDef COM)
 467:Drivers/BSP/STM32G4xx_Nucleo/stm32g4xx_nucleo.c **** {
 468:Drivers/BSP/STM32G4xx_Nucleo/stm32g4xx_nucleo.c ****   int32_t ret = BSP_ERROR_NONE;
 469:Drivers/BSP/STM32G4xx_Nucleo/stm32g4xx_nucleo.c **** 
 470:Drivers/BSP/STM32G4xx_Nucleo/stm32g4xx_nucleo.c ****   if(COM >= COMn)
 471:Drivers/BSP/STM32G4xx_Nucleo/stm32g4xx_nucleo.c ****   {
 472:Drivers/BSP/STM32G4xx_Nucleo/stm32g4xx_nucleo.c ****     ret = BSP_ERROR_WRONG_PARAM;
 473:Drivers/BSP/STM32G4xx_Nucleo/stm32g4xx_nucleo.c ****   }
 474:Drivers/BSP/STM32G4xx_Nucleo/stm32g4xx_nucleo.c ****   else
 475:Drivers/BSP/STM32G4xx_Nucleo/stm32g4xx_nucleo.c ****   {
 476:Drivers/BSP/STM32G4xx_Nucleo/stm32g4xx_nucleo.c ****     __HAL_UART_RESET_HANDLE_STATE(&hcom_uart[COM]);
 477:Drivers/BSP/STM32G4xx_Nucleo/stm32g4xx_nucleo.c **** 
 478:Drivers/BSP/STM32G4xx_Nucleo/stm32g4xx_nucleo.c ****     /* Register default MspInit/MspDeInit Callback */
 479:Drivers/BSP/STM32G4xx_Nucleo/stm32g4xx_nucleo.c ****     if(HAL_UART_RegisterCallback(&hcom_uart[COM], HAL_UART_MSPINIT_CB_ID, COM1_MspInit) != HAL_OK)
 480:Drivers/BSP/STM32G4xx_Nucleo/stm32g4xx_nucleo.c ****     {
 481:Drivers/BSP/STM32G4xx_Nucleo/stm32g4xx_nucleo.c ****       ret = BSP_ERROR_PERIPH_FAILURE;
 482:Drivers/BSP/STM32G4xx_Nucleo/stm32g4xx_nucleo.c ****     }
 483:Drivers/BSP/STM32G4xx_Nucleo/stm32g4xx_nucleo.c ****     else if(HAL_UART_RegisterCallback(&hcom_uart[COM], HAL_UART_MSPDEINIT_CB_ID, COM1_MspDeInit) !=
 484:Drivers/BSP/STM32G4xx_Nucleo/stm32g4xx_nucleo.c ****     {
 485:Drivers/BSP/STM32G4xx_Nucleo/stm32g4xx_nucleo.c ****       ret = BSP_ERROR_PERIPH_FAILURE;
 486:Drivers/BSP/STM32G4xx_Nucleo/stm32g4xx_nucleo.c ****     }
ARM GAS  /tmp/ccvsXuDi.s 			page 10


 487:Drivers/BSP/STM32G4xx_Nucleo/stm32g4xx_nucleo.c ****     else
 488:Drivers/BSP/STM32G4xx_Nucleo/stm32g4xx_nucleo.c ****     {
 489:Drivers/BSP/STM32G4xx_Nucleo/stm32g4xx_nucleo.c ****       IsComMspCbValid[COM] = 1U;
 490:Drivers/BSP/STM32G4xx_Nucleo/stm32g4xx_nucleo.c ****     }
 491:Drivers/BSP/STM32G4xx_Nucleo/stm32g4xx_nucleo.c ****   }
 492:Drivers/BSP/STM32G4xx_Nucleo/stm32g4xx_nucleo.c **** 
 493:Drivers/BSP/STM32G4xx_Nucleo/stm32g4xx_nucleo.c ****   /* BSP status */
 494:Drivers/BSP/STM32G4xx_Nucleo/stm32g4xx_nucleo.c ****   return ret;
 495:Drivers/BSP/STM32G4xx_Nucleo/stm32g4xx_nucleo.c **** }
 496:Drivers/BSP/STM32G4xx_Nucleo/stm32g4xx_nucleo.c **** 
 497:Drivers/BSP/STM32G4xx_Nucleo/stm32g4xx_nucleo.c **** /**
 498:Drivers/BSP/STM32G4xx_Nucleo/stm32g4xx_nucleo.c ****   * @brief Register COM Msp Callback registering
 499:Drivers/BSP/STM32G4xx_Nucleo/stm32g4xx_nucleo.c ****   * @param  COM COM port to be configured.
 500:Drivers/BSP/STM32G4xx_Nucleo/stm32g4xx_nucleo.c ****   *          This parameter can be COM1
 501:Drivers/BSP/STM32G4xx_Nucleo/stm32g4xx_nucleo.c ****   * @param Callbacks     pointer to COM1 MspInit/MspDeInit callback functions
 502:Drivers/BSP/STM32G4xx_Nucleo/stm32g4xx_nucleo.c ****   * @retval BSP status
 503:Drivers/BSP/STM32G4xx_Nucleo/stm32g4xx_nucleo.c ****   */
 504:Drivers/BSP/STM32G4xx_Nucleo/stm32g4xx_nucleo.c **** int32_t BSP_COM_RegisterMspCallbacks(COM_TypeDef COM , BSP_COM_Cb_t *Callback)
 505:Drivers/BSP/STM32G4xx_Nucleo/stm32g4xx_nucleo.c **** {
 506:Drivers/BSP/STM32G4xx_Nucleo/stm32g4xx_nucleo.c ****   int32_t ret = BSP_ERROR_NONE;
 507:Drivers/BSP/STM32G4xx_Nucleo/stm32g4xx_nucleo.c **** 
 508:Drivers/BSP/STM32G4xx_Nucleo/stm32g4xx_nucleo.c ****   if(COM >= COMn)
 509:Drivers/BSP/STM32G4xx_Nucleo/stm32g4xx_nucleo.c ****   {
 510:Drivers/BSP/STM32G4xx_Nucleo/stm32g4xx_nucleo.c ****     ret = BSP_ERROR_WRONG_PARAM;
 511:Drivers/BSP/STM32G4xx_Nucleo/stm32g4xx_nucleo.c ****   }
 512:Drivers/BSP/STM32G4xx_Nucleo/stm32g4xx_nucleo.c ****   else
 513:Drivers/BSP/STM32G4xx_Nucleo/stm32g4xx_nucleo.c ****   {
 514:Drivers/BSP/STM32G4xx_Nucleo/stm32g4xx_nucleo.c ****     __HAL_UART_RESET_HANDLE_STATE(&hcom_uart[COM]);
 515:Drivers/BSP/STM32G4xx_Nucleo/stm32g4xx_nucleo.c **** 
 516:Drivers/BSP/STM32G4xx_Nucleo/stm32g4xx_nucleo.c ****     /* Register MspInit/MspDeInit Callbacks */
 517:Drivers/BSP/STM32G4xx_Nucleo/stm32g4xx_nucleo.c ****     if(HAL_UART_RegisterCallback(&hcom_uart[COM], HAL_UART_MSPINIT_CB_ID, Callback->pMspInitCb) != 
 518:Drivers/BSP/STM32G4xx_Nucleo/stm32g4xx_nucleo.c ****     {
 519:Drivers/BSP/STM32G4xx_Nucleo/stm32g4xx_nucleo.c ****       ret = BSP_ERROR_PERIPH_FAILURE;
 520:Drivers/BSP/STM32G4xx_Nucleo/stm32g4xx_nucleo.c ****     }
 521:Drivers/BSP/STM32G4xx_Nucleo/stm32g4xx_nucleo.c ****     else if(HAL_UART_RegisterCallback(&hcom_uart[COM], HAL_UART_MSPDEINIT_CB_ID, Callback->pMspDeIn
 522:Drivers/BSP/STM32G4xx_Nucleo/stm32g4xx_nucleo.c ****     {
 523:Drivers/BSP/STM32G4xx_Nucleo/stm32g4xx_nucleo.c ****       ret = BSP_ERROR_PERIPH_FAILURE;
 524:Drivers/BSP/STM32G4xx_Nucleo/stm32g4xx_nucleo.c ****     }
 525:Drivers/BSP/STM32G4xx_Nucleo/stm32g4xx_nucleo.c ****     else
 526:Drivers/BSP/STM32G4xx_Nucleo/stm32g4xx_nucleo.c ****     {
 527:Drivers/BSP/STM32G4xx_Nucleo/stm32g4xx_nucleo.c ****       IsComMspCbValid[COM] = 1U;
 528:Drivers/BSP/STM32G4xx_Nucleo/stm32g4xx_nucleo.c ****     }
 529:Drivers/BSP/STM32G4xx_Nucleo/stm32g4xx_nucleo.c ****   }
 530:Drivers/BSP/STM32G4xx_Nucleo/stm32g4xx_nucleo.c ****   /* BSP status */
 531:Drivers/BSP/STM32G4xx_Nucleo/stm32g4xx_nucleo.c ****   return ret;
 532:Drivers/BSP/STM32G4xx_Nucleo/stm32g4xx_nucleo.c **** }
 533:Drivers/BSP/STM32G4xx_Nucleo/stm32g4xx_nucleo.c **** #endif /* USE_HAL_UART_REGISTER_CALLBACKS */
 534:Drivers/BSP/STM32G4xx_Nucleo/stm32g4xx_nucleo.c **** 
 535:Drivers/BSP/STM32G4xx_Nucleo/stm32g4xx_nucleo.c **** #if (USE_COM_LOG > 0)
 536:Drivers/BSP/STM32G4xx_Nucleo/stm32g4xx_nucleo.c **** /**
 537:Drivers/BSP/STM32G4xx_Nucleo/stm32g4xx_nucleo.c ****   * @brief  Select the active COM port.
 538:Drivers/BSP/STM32G4xx_Nucleo/stm32g4xx_nucleo.c ****   * @param  COM COM port to be activated.
 539:Drivers/BSP/STM32G4xx_Nucleo/stm32g4xx_nucleo.c ****   *          This parameter can be COM1
 540:Drivers/BSP/STM32G4xx_Nucleo/stm32g4xx_nucleo.c ****   * @retval BSP status
 541:Drivers/BSP/STM32G4xx_Nucleo/stm32g4xx_nucleo.c ****   */
 542:Drivers/BSP/STM32G4xx_Nucleo/stm32g4xx_nucleo.c **** int32_t BSP_COM_SelectLogPort(COM_TypeDef COM)
 543:Drivers/BSP/STM32G4xx_Nucleo/stm32g4xx_nucleo.c **** {
ARM GAS  /tmp/ccvsXuDi.s 			page 11


 544:Drivers/BSP/STM32G4xx_Nucleo/stm32g4xx_nucleo.c ****   if(COM_ActiveLogPort != COM)
 545:Drivers/BSP/STM32G4xx_Nucleo/stm32g4xx_nucleo.c ****   {
 546:Drivers/BSP/STM32G4xx_Nucleo/stm32g4xx_nucleo.c ****     COM_ActiveLogPort = COM;
 547:Drivers/BSP/STM32G4xx_Nucleo/stm32g4xx_nucleo.c ****   }
 548:Drivers/BSP/STM32G4xx_Nucleo/stm32g4xx_nucleo.c ****   return BSP_ERROR_NONE;
 549:Drivers/BSP/STM32G4xx_Nucleo/stm32g4xx_nucleo.c **** }
 550:Drivers/BSP/STM32G4xx_Nucleo/stm32g4xx_nucleo.c **** 
 551:Drivers/BSP/STM32G4xx_Nucleo/stm32g4xx_nucleo.c **** /**
 552:Drivers/BSP/STM32G4xx_Nucleo/stm32g4xx_nucleo.c ****   * @brief  Retargets the C library __write function to the IAR function iar_fputc.
 553:Drivers/BSP/STM32G4xx_Nucleo/stm32g4xx_nucleo.c ****   * @param  file: file descriptor.
 554:Drivers/BSP/STM32G4xx_Nucleo/stm32g4xx_nucleo.c ****   * @param  ptr: pointer to the buffer where the data is stored.
 555:Drivers/BSP/STM32G4xx_Nucleo/stm32g4xx_nucleo.c ****   * @param  len: length of the data to write in bytes.
 556:Drivers/BSP/STM32G4xx_Nucleo/stm32g4xx_nucleo.c ****   * @retval length of the written data in bytes.
 557:Drivers/BSP/STM32G4xx_Nucleo/stm32g4xx_nucleo.c ****   */
 558:Drivers/BSP/STM32G4xx_Nucleo/stm32g4xx_nucleo.c **** #if defined(__ICCARM__)
 559:Drivers/BSP/STM32G4xx_Nucleo/stm32g4xx_nucleo.c **** size_t __write(int file, unsigned char const *ptr, size_t len)
 560:Drivers/BSP/STM32G4xx_Nucleo/stm32g4xx_nucleo.c **** {
 561:Drivers/BSP/STM32G4xx_Nucleo/stm32g4xx_nucleo.c ****   size_t idx;
 562:Drivers/BSP/STM32G4xx_Nucleo/stm32g4xx_nucleo.c ****   unsigned char const *pdata = ptr;
 563:Drivers/BSP/STM32G4xx_Nucleo/stm32g4xx_nucleo.c **** 
 564:Drivers/BSP/STM32G4xx_Nucleo/stm32g4xx_nucleo.c ****   for (idx = 0; idx < len; idx++)
 565:Drivers/BSP/STM32G4xx_Nucleo/stm32g4xx_nucleo.c ****   {
 566:Drivers/BSP/STM32G4xx_Nucleo/stm32g4xx_nucleo.c ****     iar_fputc((int)*pdata);
 567:Drivers/BSP/STM32G4xx_Nucleo/stm32g4xx_nucleo.c ****     pdata++;
 568:Drivers/BSP/STM32G4xx_Nucleo/stm32g4xx_nucleo.c ****   }
 569:Drivers/BSP/STM32G4xx_Nucleo/stm32g4xx_nucleo.c ****   return len;
 570:Drivers/BSP/STM32G4xx_Nucleo/stm32g4xx_nucleo.c **** }
 571:Drivers/BSP/STM32G4xx_Nucleo/stm32g4xx_nucleo.c **** #endif /* __ICCARM__ */
 572:Drivers/BSP/STM32G4xx_Nucleo/stm32g4xx_nucleo.c **** 
 573:Drivers/BSP/STM32G4xx_Nucleo/stm32g4xx_nucleo.c **** /**
 574:Drivers/BSP/STM32G4xx_Nucleo/stm32g4xx_nucleo.c ****   * @brief  Redirect console output to COM
 575:Drivers/BSP/STM32G4xx_Nucleo/stm32g4xx_nucleo.c ****   */
 576:Drivers/BSP/STM32G4xx_Nucleo/stm32g4xx_nucleo.c **** PUTCHAR_PROTOTYPE
 577:Drivers/BSP/STM32G4xx_Nucleo/stm32g4xx_nucleo.c **** {
 578:Drivers/BSP/STM32G4xx_Nucleo/stm32g4xx_nucleo.c ****   (void) HAL_UART_Transmit(&hcom_uart [COM_ActiveLogPort], (uint8_t *) &ch, 1, COM_POLL_TIMEOUT);
 579:Drivers/BSP/STM32G4xx_Nucleo/stm32g4xx_nucleo.c ****   return ch;
 580:Drivers/BSP/STM32G4xx_Nucleo/stm32g4xx_nucleo.c **** }
 581:Drivers/BSP/STM32G4xx_Nucleo/stm32g4xx_nucleo.c **** #endif /* USE_COM_LOG */
 582:Drivers/BSP/STM32G4xx_Nucleo/stm32g4xx_nucleo.c **** #endif /* (USE_BSP_COM_FEATURE > 0) */
 583:Drivers/BSP/STM32G4xx_Nucleo/stm32g4xx_nucleo.c **** 
 584:Drivers/BSP/STM32G4xx_Nucleo/stm32g4xx_nucleo.c **** /**
 585:Drivers/BSP/STM32G4xx_Nucleo/stm32g4xx_nucleo.c ****   * @}
 586:Drivers/BSP/STM32G4xx_Nucleo/stm32g4xx_nucleo.c ****   */
 587:Drivers/BSP/STM32G4xx_Nucleo/stm32g4xx_nucleo.c **** 
 588:Drivers/BSP/STM32G4xx_Nucleo/stm32g4xx_nucleo.c **** /** @addtogroup STM32G4XX_NUCLEO_LOW_LEVEL_Private_Functions
 589:Drivers/BSP/STM32G4xx_Nucleo/stm32g4xx_nucleo.c ****   * @{
 590:Drivers/BSP/STM32G4xx_Nucleo/stm32g4xx_nucleo.c ****   */
 591:Drivers/BSP/STM32G4xx_Nucleo/stm32g4xx_nucleo.c **** #if defined (USE_NUCLEO_64)
 592:Drivers/BSP/STM32G4xx_Nucleo/stm32g4xx_nucleo.c **** /**
 593:Drivers/BSP/STM32G4xx_Nucleo/stm32g4xx_nucleo.c ****   * @brief  Key EXTI line detection callbacks.
 594:Drivers/BSP/STM32G4xx_Nucleo/stm32g4xx_nucleo.c ****   * @retval BSP status
 595:Drivers/BSP/STM32G4xx_Nucleo/stm32g4xx_nucleo.c ****   */
 596:Drivers/BSP/STM32G4xx_Nucleo/stm32g4xx_nucleo.c **** static void BUTTON_USER_EXTI_Callback(void)
 597:Drivers/BSP/STM32G4xx_Nucleo/stm32g4xx_nucleo.c **** {
 598:Drivers/BSP/STM32G4xx_Nucleo/stm32g4xx_nucleo.c ****   BSP_PB_Callback(BUTTON_USER);
 599:Drivers/BSP/STM32G4xx_Nucleo/stm32g4xx_nucleo.c **** }
 600:Drivers/BSP/STM32G4xx_Nucleo/stm32g4xx_nucleo.c **** #endif /* USE_NUCLEO_64 */
ARM GAS  /tmp/ccvsXuDi.s 			page 12


 601:Drivers/BSP/STM32G4xx_Nucleo/stm32g4xx_nucleo.c **** 
 602:Drivers/BSP/STM32G4xx_Nucleo/stm32g4xx_nucleo.c **** #if (USE_BSP_COM_FEATURE > 0)
 603:Drivers/BSP/STM32G4xx_Nucleo/stm32g4xx_nucleo.c **** /**
 604:Drivers/BSP/STM32G4xx_Nucleo/stm32g4xx_nucleo.c ****   * @brief  Initializes COM1 MSP.
 605:Drivers/BSP/STM32G4xx_Nucleo/stm32g4xx_nucleo.c ****   * @param  huart UART handle
 606:Drivers/BSP/STM32G4xx_Nucleo/stm32g4xx_nucleo.c ****   * @retval BSP status
 607:Drivers/BSP/STM32G4xx_Nucleo/stm32g4xx_nucleo.c ****   */
 608:Drivers/BSP/STM32G4xx_Nucleo/stm32g4xx_nucleo.c **** static void COM1_MspInit(UART_HandleTypeDef *huart)
 609:Drivers/BSP/STM32G4xx_Nucleo/stm32g4xx_nucleo.c **** {
  29              		.loc 1 609 1 view -0
  30              		.cfi_startproc
  31              		@ args = 0, pretend = 0, frame = 32
  32              		@ frame_needed = 0, uses_anonymous_args = 0
  33              		.loc 1 609 1 is_stmt 0 view .LVU1
  34 0000 70B5     		push	{r4, r5, r6, lr}
  35              		.cfi_def_cfa_offset 16
  36              		.cfi_offset 4, -16
  37              		.cfi_offset 5, -12
  38              		.cfi_offset 6, -8
  39              		.cfi_offset 14, -4
  40 0002 88B0     		sub	sp, sp, #32
  41              		.cfi_def_cfa_offset 48
 610:Drivers/BSP/STM32G4xx_Nucleo/stm32g4xx_nucleo.c ****   GPIO_InitTypeDef gpio_init_structure;
  42              		.loc 1 610 3 is_stmt 1 view .LVU2
 611:Drivers/BSP/STM32G4xx_Nucleo/stm32g4xx_nucleo.c **** 
 612:Drivers/BSP/STM32G4xx_Nucleo/stm32g4xx_nucleo.c ****   /* Prevent unused argument(s) compilation warning */
 613:Drivers/BSP/STM32G4xx_Nucleo/stm32g4xx_nucleo.c ****   UNUSED(huart);
  43              		.loc 1 613 3 view .LVU3
 614:Drivers/BSP/STM32G4xx_Nucleo/stm32g4xx_nucleo.c **** 
 615:Drivers/BSP/STM32G4xx_Nucleo/stm32g4xx_nucleo.c ****   /* Enable GPIO clock */
 616:Drivers/BSP/STM32G4xx_Nucleo/stm32g4xx_nucleo.c ****   COM1_TX_GPIO_CLK_ENABLE();
  44              		.loc 1 616 3 view .LVU4
  45              	.LBB2:
  46              		.loc 1 616 3 view .LVU5
  47              		.loc 1 616 3 view .LVU6
  48 0004 1B4B     		ldr	r3, .L3
  49 0006 DA6C     		ldr	r2, [r3, #76]
  50 0008 42F00102 		orr	r2, r2, #1
  51 000c DA64     		str	r2, [r3, #76]
  52              		.loc 1 616 3 view .LVU7
  53 000e DA6C     		ldr	r2, [r3, #76]
  54 0010 02F00102 		and	r2, r2, #1
  55 0014 0092     		str	r2, [sp]
  56              		.loc 1 616 3 view .LVU8
  57 0016 009A     		ldr	r2, [sp]
  58              	.LBE2:
  59              		.loc 1 616 3 view .LVU9
 617:Drivers/BSP/STM32G4xx_Nucleo/stm32g4xx_nucleo.c ****   COM1_RX_GPIO_CLK_ENABLE();
  60              		.loc 1 617 3 view .LVU10
  61              	.LBB3:
  62              		.loc 1 617 3 view .LVU11
  63              		.loc 1 617 3 view .LVU12
  64 0018 DA6C     		ldr	r2, [r3, #76]
  65 001a 42F00102 		orr	r2, r2, #1
  66 001e DA64     		str	r2, [r3, #76]
  67              		.loc 1 617 3 view .LVU13
  68 0020 DA6C     		ldr	r2, [r3, #76]
ARM GAS  /tmp/ccvsXuDi.s 			page 13


  69 0022 02F00102 		and	r2, r2, #1
  70 0026 0192     		str	r2, [sp, #4]
  71              		.loc 1 617 3 view .LVU14
  72 0028 019A     		ldr	r2, [sp, #4]
  73              	.LBE3:
  74              		.loc 1 617 3 view .LVU15
 618:Drivers/BSP/STM32G4xx_Nucleo/stm32g4xx_nucleo.c **** 
 619:Drivers/BSP/STM32G4xx_Nucleo/stm32g4xx_nucleo.c ****   /* Enable USART clock */
 620:Drivers/BSP/STM32G4xx_Nucleo/stm32g4xx_nucleo.c ****   COM1_CLK_ENABLE();
  75              		.loc 1 620 3 view .LVU16
  76              	.LBB4:
  77              		.loc 1 620 3 view .LVU17
  78              		.loc 1 620 3 view .LVU18
  79 002a DA6D     		ldr	r2, [r3, #92]
  80 002c 42F00102 		orr	r2, r2, #1
  81 0030 DA65     		str	r2, [r3, #92]
  82              		.loc 1 620 3 view .LVU19
  83 0032 DB6D     		ldr	r3, [r3, #92]
  84 0034 03F00103 		and	r3, r3, #1
  85 0038 0293     		str	r3, [sp, #8]
  86              		.loc 1 620 3 view .LVU20
  87 003a 029B     		ldr	r3, [sp, #8]
  88              	.LBE4:
  89              		.loc 1 620 3 view .LVU21
 621:Drivers/BSP/STM32G4xx_Nucleo/stm32g4xx_nucleo.c **** 
 622:Drivers/BSP/STM32G4xx_Nucleo/stm32g4xx_nucleo.c ****   /* Configure USART Tx as alternate function */
 623:Drivers/BSP/STM32G4xx_Nucleo/stm32g4xx_nucleo.c ****   gpio_init_structure.Pin       = COM1_TX_PIN;
  90              		.loc 1 623 3 view .LVU22
  91              		.loc 1 623 33 is_stmt 0 view .LVU23
  92 003c 0423     		movs	r3, #4
  93 003e 0393     		str	r3, [sp, #12]
 624:Drivers/BSP/STM32G4xx_Nucleo/stm32g4xx_nucleo.c ****   gpio_init_structure.Mode      = GPIO_MODE_AF_PP;
  94              		.loc 1 624 3 is_stmt 1 view .LVU24
  95              		.loc 1 624 33 is_stmt 0 view .LVU25
  96 0040 0224     		movs	r4, #2
  97 0042 0494     		str	r4, [sp, #16]
 625:Drivers/BSP/STM32G4xx_Nucleo/stm32g4xx_nucleo.c ****   gpio_init_structure.Speed     = GPIO_SPEED_FREQ_HIGH;
  98              		.loc 1 625 3 is_stmt 1 view .LVU26
  99              		.loc 1 625 33 is_stmt 0 view .LVU27
 100 0044 0694     		str	r4, [sp, #24]
 626:Drivers/BSP/STM32G4xx_Nucleo/stm32g4xx_nucleo.c ****   gpio_init_structure.Pull      = GPIO_PULLUP;
 101              		.loc 1 626 3 is_stmt 1 view .LVU28
 102              		.loc 1 626 33 is_stmt 0 view .LVU29
 103 0046 0123     		movs	r3, #1
 104 0048 0593     		str	r3, [sp, #20]
 627:Drivers/BSP/STM32G4xx_Nucleo/stm32g4xx_nucleo.c ****   gpio_init_structure.Alternate = COM1_TX_AF;
 105              		.loc 1 627 3 is_stmt 1 view .LVU30
 106              		.loc 1 627 33 is_stmt 0 view .LVU31
 107 004a 0C26     		movs	r6, #12
 108 004c 0796     		str	r6, [sp, #28]
 628:Drivers/BSP/STM32G4xx_Nucleo/stm32g4xx_nucleo.c ****   HAL_GPIO_Init(COM1_TX_GPIO_PORT, &gpio_init_structure);
 109              		.loc 1 628 3 is_stmt 1 view .LVU32
 110 004e 0DEB0605 		add	r5, sp, r6
 111 0052 2946     		mov	r1, r5
 112 0054 4FF09040 		mov	r0, #1207959552
 113              	.LVL1:
 114              		.loc 1 628 3 is_stmt 0 view .LVU33
ARM GAS  /tmp/ccvsXuDi.s 			page 14


 115 0058 FFF7FEFF 		bl	HAL_GPIO_Init
 116              	.LVL2:
 629:Drivers/BSP/STM32G4xx_Nucleo/stm32g4xx_nucleo.c **** 
 630:Drivers/BSP/STM32G4xx_Nucleo/stm32g4xx_nucleo.c ****   /* Configure USART Rx as alternate function */
 631:Drivers/BSP/STM32G4xx_Nucleo/stm32g4xx_nucleo.c ****   gpio_init_structure.Pin = COM1_RX_PIN;
 117              		.loc 1 631 3 is_stmt 1 view .LVU34
 118              		.loc 1 631 27 is_stmt 0 view .LVU35
 119 005c 0823     		movs	r3, #8
 120 005e 0393     		str	r3, [sp, #12]
 632:Drivers/BSP/STM32G4xx_Nucleo/stm32g4xx_nucleo.c ****   gpio_init_structure.Mode = GPIO_MODE_AF_PP;
 121              		.loc 1 632 3 is_stmt 1 view .LVU36
 122              		.loc 1 632 28 is_stmt 0 view .LVU37
 123 0060 0494     		str	r4, [sp, #16]
 633:Drivers/BSP/STM32G4xx_Nucleo/stm32g4xx_nucleo.c ****   gpio_init_structure.Alternate = COM1_RX_AF;
 124              		.loc 1 633 3 is_stmt 1 view .LVU38
 125              		.loc 1 633 33 is_stmt 0 view .LVU39
 126 0062 0796     		str	r6, [sp, #28]
 634:Drivers/BSP/STM32G4xx_Nucleo/stm32g4xx_nucleo.c ****   HAL_GPIO_Init(COM1_RX_GPIO_PORT, &gpio_init_structure);
 127              		.loc 1 634 3 is_stmt 1 view .LVU40
 128 0064 2946     		mov	r1, r5
 129 0066 4FF09040 		mov	r0, #1207959552
 130 006a FFF7FEFF 		bl	HAL_GPIO_Init
 131              	.LVL3:
 635:Drivers/BSP/STM32G4xx_Nucleo/stm32g4xx_nucleo.c **** }
 132              		.loc 1 635 1 is_stmt 0 view .LVU41
 133 006e 08B0     		add	sp, sp, #32
 134              		.cfi_def_cfa_offset 16
 135              		@ sp needed
 136 0070 70BD     		pop	{r4, r5, r6, pc}
 137              	.L4:
 138 0072 00BF     		.align	2
 139              	.L3:
 140 0074 00100240 		.word	1073876992
 141              		.cfi_endproc
 142              	.LFE152:
 144              		.section	.text.COM1_MspDeInit,"ax",%progbits
 145              		.align	1
 146              		.syntax unified
 147              		.thumb
 148              		.thumb_func
 150              	COM1_MspDeInit:
 151              	.LVL4:
 152              	.LFB153:
 636:Drivers/BSP/STM32G4xx_Nucleo/stm32g4xx_nucleo.c **** 
 637:Drivers/BSP/STM32G4xx_Nucleo/stm32g4xx_nucleo.c **** /**
 638:Drivers/BSP/STM32G4xx_Nucleo/stm32g4xx_nucleo.c ****   * @brief  DeInitialize COM1 MSP part
 639:Drivers/BSP/STM32G4xx_Nucleo/stm32g4xx_nucleo.c ****   * @param  huart UART handle
 640:Drivers/BSP/STM32G4xx_Nucleo/stm32g4xx_nucleo.c ****   * @retval BSP status
 641:Drivers/BSP/STM32G4xx_Nucleo/stm32g4xx_nucleo.c ****   */
 642:Drivers/BSP/STM32G4xx_Nucleo/stm32g4xx_nucleo.c **** static void COM1_MspDeInit(UART_HandleTypeDef *huart)
 643:Drivers/BSP/STM32G4xx_Nucleo/stm32g4xx_nucleo.c **** {
 153              		.loc 1 643 1 is_stmt 1 view -0
 154              		.cfi_startproc
 155              		@ args = 0, pretend = 0, frame = 24
 156              		@ frame_needed = 0, uses_anonymous_args = 0
 157              		.loc 1 643 1 is_stmt 0 view .LVU43
 158 0000 00B5     		push	{lr}
ARM GAS  /tmp/ccvsXuDi.s 			page 15


 159              		.cfi_def_cfa_offset 4
 160              		.cfi_offset 14, -4
 161 0002 87B0     		sub	sp, sp, #28
 162              		.cfi_def_cfa_offset 32
 644:Drivers/BSP/STM32G4xx_Nucleo/stm32g4xx_nucleo.c ****   GPIO_InitTypeDef gpio_init_structure;
 163              		.loc 1 644 3 is_stmt 1 view .LVU44
 645:Drivers/BSP/STM32G4xx_Nucleo/stm32g4xx_nucleo.c **** 
 646:Drivers/BSP/STM32G4xx_Nucleo/stm32g4xx_nucleo.c ****   /* Prevent unused argument(s) compilation warning */
 647:Drivers/BSP/STM32G4xx_Nucleo/stm32g4xx_nucleo.c ****   UNUSED(huart);
 164              		.loc 1 647 3 view .LVU45
 648:Drivers/BSP/STM32G4xx_Nucleo/stm32g4xx_nucleo.c **** 
 649:Drivers/BSP/STM32G4xx_Nucleo/stm32g4xx_nucleo.c ****   /* COM GPIO pin configuration */
 650:Drivers/BSP/STM32G4xx_Nucleo/stm32g4xx_nucleo.c ****   gpio_init_structure.Pin  = COM1_TX_PIN;
 165              		.loc 1 650 3 view .LVU46
 166              		.loc 1 650 28 is_stmt 0 view .LVU47
 167 0004 0421     		movs	r1, #4
 168 0006 0191     		str	r1, [sp, #4]
 651:Drivers/BSP/STM32G4xx_Nucleo/stm32g4xx_nucleo.c ****   HAL_GPIO_DeInit(COM1_TX_GPIO_PORT, gpio_init_structure.Pin);
 169              		.loc 1 651 3 is_stmt 1 view .LVU48
 170 0008 4FF09040 		mov	r0, #1207959552
 171              	.LVL5:
 172              		.loc 1 651 3 is_stmt 0 view .LVU49
 173 000c FFF7FEFF 		bl	HAL_GPIO_DeInit
 174              	.LVL6:
 652:Drivers/BSP/STM32G4xx_Nucleo/stm32g4xx_nucleo.c **** 
 653:Drivers/BSP/STM32G4xx_Nucleo/stm32g4xx_nucleo.c ****   gpio_init_structure.Pin  = COM1_RX_PIN;
 175              		.loc 1 653 3 is_stmt 1 view .LVU50
 176              		.loc 1 653 28 is_stmt 0 view .LVU51
 177 0010 0821     		movs	r1, #8
 178 0012 0191     		str	r1, [sp, #4]
 654:Drivers/BSP/STM32G4xx_Nucleo/stm32g4xx_nucleo.c ****   HAL_GPIO_DeInit(COM1_RX_GPIO_PORT, gpio_init_structure.Pin);
 179              		.loc 1 654 3 is_stmt 1 view .LVU52
 180 0014 4FF09040 		mov	r0, #1207959552
 181 0018 FFF7FEFF 		bl	HAL_GPIO_DeInit
 182              	.LVL7:
 655:Drivers/BSP/STM32G4xx_Nucleo/stm32g4xx_nucleo.c **** 
 656:Drivers/BSP/STM32G4xx_Nucleo/stm32g4xx_nucleo.c ****   /* Disable USART clock */
 657:Drivers/BSP/STM32G4xx_Nucleo/stm32g4xx_nucleo.c ****   COM1_CLK_DISABLE();
 183              		.loc 1 657 3 view .LVU53
 184 001c 034A     		ldr	r2, .L7
 185 001e D36D     		ldr	r3, [r2, #92]
 186 0020 23F00103 		bic	r3, r3, #1
 187 0024 D365     		str	r3, [r2, #92]
 658:Drivers/BSP/STM32G4xx_Nucleo/stm32g4xx_nucleo.c **** }
 188              		.loc 1 658 1 is_stmt 0 view .LVU54
 189 0026 07B0     		add	sp, sp, #28
 190              		.cfi_def_cfa_offset 4
 191              		@ sp needed
 192 0028 5DF804FB 		ldr	pc, [sp], #4
 193              	.L8:
 194              		.align	2
 195              	.L7:
 196 002c 00100240 		.word	1073876992
 197              		.cfi_endproc
 198              	.LFE153:
 200              		.section	.text.BSP_GetVersion,"ax",%progbits
 201              		.align	1
ARM GAS  /tmp/ccvsXuDi.s 			page 16


 202              		.global	BSP_GetVersion
 203              		.syntax unified
 204              		.thumb
 205              		.thumb_func
 207              	BSP_GetVersion:
 208              	.LFB132:
 139:Drivers/BSP/STM32G4xx_Nucleo/stm32g4xx_nucleo.c ****   return (int32_t)STM32G4XX_NUCLEO_BSP_VERSION;
 209              		.loc 1 139 1 is_stmt 1 view -0
 210              		.cfi_startproc
 211              		@ args = 0, pretend = 0, frame = 0
 212              		@ frame_needed = 0, uses_anonymous_args = 0
 213              		@ link register save eliminated.
 140:Drivers/BSP/STM32G4xx_Nucleo/stm32g4xx_nucleo.c **** }
 214              		.loc 1 140 3 view .LVU56
 141:Drivers/BSP/STM32G4xx_Nucleo/stm32g4xx_nucleo.c **** 
 215              		.loc 1 141 1 is_stmt 0 view .LVU57
 216 0000 0048     		ldr	r0, .L10
 217 0002 7047     		bx	lr
 218              	.L11:
 219              		.align	2
 220              	.L10:
 221 0004 00050001 		.word	16778496
 222              		.cfi_endproc
 223              	.LFE132:
 225              		.section	.rodata.BSP_GetBoardName.str1.4,"aMS",%progbits,1
 226              		.align	2
 227              	.LC0:
 228 0000 53544D33 		.ascii	"STM32G474-NUCLEO\000"
 228      32473437 
 228      342D4E55 
 228      434C454F 
 228      00
 229              		.section	.text.BSP_GetBoardName,"ax",%progbits
 230              		.align	1
 231              		.global	BSP_GetBoardName
 232              		.syntax unified
 233              		.thumb
 234              		.thumb_func
 236              	BSP_GetBoardName:
 237              	.LFB133:
 148:Drivers/BSP/STM32G4xx_Nucleo/stm32g4xx_nucleo.c ****   return (const uint8_t*)STM32G4XX_NUCLEO_BSP_BOARD_NAME;
 238              		.loc 1 148 1 is_stmt 1 view -0
 239              		.cfi_startproc
 240              		@ args = 0, pretend = 0, frame = 0
 241              		@ frame_needed = 0, uses_anonymous_args = 0
 242              		@ link register save eliminated.
 149:Drivers/BSP/STM32G4xx_Nucleo/stm32g4xx_nucleo.c **** }
 243              		.loc 1 149 3 view .LVU59
 150:Drivers/BSP/STM32G4xx_Nucleo/stm32g4xx_nucleo.c **** 
 244              		.loc 1 150 1 is_stmt 0 view .LVU60
 245 0000 0048     		ldr	r0, .L13
 246 0002 7047     		bx	lr
 247              	.L14:
 248              		.align	2
 249              	.L13:
 250 0004 00000000 		.word	.LC0
 251              		.cfi_endproc
ARM GAS  /tmp/ccvsXuDi.s 			page 17


 252              	.LFE133:
 254              		.section	.rodata.BSP_GetBoardID.str1.4,"aMS",%progbits,1
 255              		.align	2
 256              	.LC1:
 257 0000 4D423133 		.ascii	"MB1367\000"
 257      363700
 258              		.section	.text.BSP_GetBoardID,"ax",%progbits
 259              		.align	1
 260              		.global	BSP_GetBoardID
 261              		.syntax unified
 262              		.thumb
 263              		.thumb_func
 265              	BSP_GetBoardID:
 266              	.LFB134:
 157:Drivers/BSP/STM32G4xx_Nucleo/stm32g4xx_nucleo.c ****   return (const uint8_t*)STM32G4XX_NUCLEO_BSP_BOARD_ID;
 267              		.loc 1 157 1 is_stmt 1 view -0
 268              		.cfi_startproc
 269              		@ args = 0, pretend = 0, frame = 0
 270              		@ frame_needed = 0, uses_anonymous_args = 0
 271              		@ link register save eliminated.
 158:Drivers/BSP/STM32G4xx_Nucleo/stm32g4xx_nucleo.c **** }
 272              		.loc 1 158 3 view .LVU62
 159:Drivers/BSP/STM32G4xx_Nucleo/stm32g4xx_nucleo.c **** 
 273              		.loc 1 159 1 is_stmt 0 view .LVU63
 274 0000 0048     		ldr	r0, .L16
 275 0002 7047     		bx	lr
 276              	.L17:
 277              		.align	2
 278              	.L16:
 279 0004 00000000 		.word	.LC1
 280              		.cfi_endproc
 281              	.LFE134:
 283              		.section	.text.BSP_LED_Init,"ax",%progbits
 284              		.align	1
 285              		.global	BSP_LED_Init
 286              		.syntax unified
 287              		.thumb
 288              		.thumb_func
 290              	BSP_LED_Init:
 291              	.LVL8:
 292              	.LFB135:
 169:Drivers/BSP/STM32G4xx_Nucleo/stm32g4xx_nucleo.c ****   GPIO_InitTypeDef  gpio_init_structure;
 293              		.loc 1 169 1 is_stmt 1 view -0
 294              		.cfi_startproc
 295              		@ args = 0, pretend = 0, frame = 24
 296              		@ frame_needed = 0, uses_anonymous_args = 0
 169:Drivers/BSP/STM32G4xx_Nucleo/stm32g4xx_nucleo.c ****   GPIO_InitTypeDef  gpio_init_structure;
 297              		.loc 1 169 1 is_stmt 0 view .LVU65
 298 0000 30B5     		push	{r4, r5, lr}
 299              		.cfi_def_cfa_offset 12
 300              		.cfi_offset 4, -12
 301              		.cfi_offset 5, -8
 302              		.cfi_offset 14, -4
 303 0002 87B0     		sub	sp, sp, #28
 304              		.cfi_def_cfa_offset 40
 170:Drivers/BSP/STM32G4xx_Nucleo/stm32g4xx_nucleo.c **** 
 305              		.loc 1 170 3 is_stmt 1 view .LVU66
ARM GAS  /tmp/ccvsXuDi.s 			page 18


 173:Drivers/BSP/STM32G4xx_Nucleo/stm32g4xx_nucleo.c **** 
 306              		.loc 1 173 3 view .LVU67
 307              	.LBB5:
 173:Drivers/BSP/STM32G4xx_Nucleo/stm32g4xx_nucleo.c **** 
 308              		.loc 1 173 3 view .LVU68
 173:Drivers/BSP/STM32G4xx_Nucleo/stm32g4xx_nucleo.c **** 
 309              		.loc 1 173 3 view .LVU69
 310 0004 0F4B     		ldr	r3, .L20
 311 0006 DA6C     		ldr	r2, [r3, #76]
 312 0008 42F00102 		orr	r2, r2, #1
 313 000c DA64     		str	r2, [r3, #76]
 173:Drivers/BSP/STM32G4xx_Nucleo/stm32g4xx_nucleo.c **** 
 314              		.loc 1 173 3 view .LVU70
 315 000e DB6C     		ldr	r3, [r3, #76]
 316 0010 03F00103 		and	r3, r3, #1
 317 0014 0093     		str	r3, [sp]
 173:Drivers/BSP/STM32G4xx_Nucleo/stm32g4xx_nucleo.c **** 
 318              		.loc 1 173 3 view .LVU71
 319 0016 009B     		ldr	r3, [sp]
 320              	.LBE5:
 173:Drivers/BSP/STM32G4xx_Nucleo/stm32g4xx_nucleo.c **** 
 321              		.loc 1 173 3 view .LVU72
 176:Drivers/BSP/STM32G4xx_Nucleo/stm32g4xx_nucleo.c ****   gpio_init_structure.Mode  = GPIO_MODE_OUTPUT_PP;
 322              		.loc 1 176 3 view .LVU73
 176:Drivers/BSP/STM32G4xx_Nucleo/stm32g4xx_nucleo.c ****   gpio_init_structure.Mode  = GPIO_MODE_OUTPUT_PP;
 323              		.loc 1 176 29 is_stmt 0 view .LVU74
 324 0018 2025     		movs	r5, #32
 325 001a 0195     		str	r5, [sp, #4]
 177:Drivers/BSP/STM32G4xx_Nucleo/stm32g4xx_nucleo.c ****   gpio_init_structure.Pull  = GPIO_NOPULL;
 326              		.loc 1 177 3 is_stmt 1 view .LVU75
 177:Drivers/BSP/STM32G4xx_Nucleo/stm32g4xx_nucleo.c ****   gpio_init_structure.Pull  = GPIO_NOPULL;
 327              		.loc 1 177 29 is_stmt 0 view .LVU76
 328 001c 0123     		movs	r3, #1
 329 001e 0293     		str	r3, [sp, #8]
 178:Drivers/BSP/STM32G4xx_Nucleo/stm32g4xx_nucleo.c ****   gpio_init_structure.Speed = GPIO_SPEED_FREQ_VERY_HIGH;
 330              		.loc 1 178 3 is_stmt 1 view .LVU77
 178:Drivers/BSP/STM32G4xx_Nucleo/stm32g4xx_nucleo.c ****   gpio_init_structure.Speed = GPIO_SPEED_FREQ_VERY_HIGH;
 331              		.loc 1 178 29 is_stmt 0 view .LVU78
 332 0020 0024     		movs	r4, #0
 333 0022 0394     		str	r4, [sp, #12]
 179:Drivers/BSP/STM32G4xx_Nucleo/stm32g4xx_nucleo.c **** 
 334              		.loc 1 179 3 is_stmt 1 view .LVU79
 179:Drivers/BSP/STM32G4xx_Nucleo/stm32g4xx_nucleo.c **** 
 335              		.loc 1 179 29 is_stmt 0 view .LVU80
 336 0024 0323     		movs	r3, #3
 337 0026 0493     		str	r3, [sp, #16]
 181:Drivers/BSP/STM32G4xx_Nucleo/stm32g4xx_nucleo.c ****   HAL_GPIO_WritePin(LED_PORT[Led], LED_PIN[Led], GPIO_PIN_RESET);
 338              		.loc 1 181 3 is_stmt 1 view .LVU81
 339 0028 01A9     		add	r1, sp, #4
 340 002a 4FF09040 		mov	r0, #1207959552
 341              	.LVL9:
 181:Drivers/BSP/STM32G4xx_Nucleo/stm32g4xx_nucleo.c ****   HAL_GPIO_WritePin(LED_PORT[Led], LED_PIN[Led], GPIO_PIN_RESET);
 342              		.loc 1 181 3 is_stmt 0 view .LVU82
 343 002e FFF7FEFF 		bl	HAL_GPIO_Init
 344              	.LVL10:
 182:Drivers/BSP/STM32G4xx_Nucleo/stm32g4xx_nucleo.c **** 
 345              		.loc 1 182 3 is_stmt 1 view .LVU83
ARM GAS  /tmp/ccvsXuDi.s 			page 19


 346 0032 2246     		mov	r2, r4
 347 0034 2946     		mov	r1, r5
 348 0036 4FF09040 		mov	r0, #1207959552
 349 003a FFF7FEFF 		bl	HAL_GPIO_WritePin
 350              	.LVL11:
 184:Drivers/BSP/STM32G4xx_Nucleo/stm32g4xx_nucleo.c **** }
 351              		.loc 1 184 3 view .LVU84
 185:Drivers/BSP/STM32G4xx_Nucleo/stm32g4xx_nucleo.c **** 
 352              		.loc 1 185 1 is_stmt 0 view .LVU85
 353 003e 2046     		mov	r0, r4
 354 0040 07B0     		add	sp, sp, #28
 355              		.cfi_def_cfa_offset 12
 356              		@ sp needed
 357 0042 30BD     		pop	{r4, r5, pc}
 358              	.L21:
 359              		.align	2
 360              	.L20:
 361 0044 00100240 		.word	1073876992
 362              		.cfi_endproc
 363              	.LFE135:
 365              		.section	.text.BSP_LED_DeInit,"ax",%progbits
 366              		.align	1
 367              		.global	BSP_LED_DeInit
 368              		.syntax unified
 369              		.thumb
 370              		.thumb_func
 372              	BSP_LED_DeInit:
 373              	.LVL12:
 374              	.LFB136:
 196:Drivers/BSP/STM32G4xx_Nucleo/stm32g4xx_nucleo.c ****   /* Turn off LED */
 375              		.loc 1 196 1 is_stmt 1 view -0
 376              		.cfi_startproc
 377              		@ args = 0, pretend = 0, frame = 0
 378              		@ frame_needed = 0, uses_anonymous_args = 0
 196:Drivers/BSP/STM32G4xx_Nucleo/stm32g4xx_nucleo.c ****   /* Turn off LED */
 379              		.loc 1 196 1 is_stmt 0 view .LVU87
 380 0000 08B5     		push	{r3, lr}
 381              		.cfi_def_cfa_offset 8
 382              		.cfi_offset 3, -8
 383              		.cfi_offset 14, -4
 198:Drivers/BSP/STM32G4xx_Nucleo/stm32g4xx_nucleo.c **** 
 384              		.loc 1 198 3 is_stmt 1 view .LVU88
 385 0002 0022     		movs	r2, #0
 386 0004 2021     		movs	r1, #32
 387 0006 4FF09040 		mov	r0, #1207959552
 388              	.LVL13:
 198:Drivers/BSP/STM32G4xx_Nucleo/stm32g4xx_nucleo.c **** 
 389              		.loc 1 198 3 is_stmt 0 view .LVU89
 390 000a FFF7FEFF 		bl	HAL_GPIO_WritePin
 391              	.LVL14:
 201:Drivers/BSP/STM32G4xx_Nucleo/stm32g4xx_nucleo.c **** 
 392              		.loc 1 201 3 is_stmt 1 view .LVU90
 393 000e 2021     		movs	r1, #32
 394 0010 4FF09040 		mov	r0, #1207959552
 395 0014 FFF7FEFF 		bl	HAL_GPIO_DeInit
 396              	.LVL15:
 203:Drivers/BSP/STM32G4xx_Nucleo/stm32g4xx_nucleo.c **** }
ARM GAS  /tmp/ccvsXuDi.s 			page 20


 397              		.loc 1 203 3 view .LVU91
 204:Drivers/BSP/STM32G4xx_Nucleo/stm32g4xx_nucleo.c **** 
 398              		.loc 1 204 1 is_stmt 0 view .LVU92
 399 0018 0020     		movs	r0, #0
 400 001a 08BD     		pop	{r3, pc}
 401              		.cfi_endproc
 402              	.LFE136:
 404              		.section	.text.BSP_LED_On,"ax",%progbits
 405              		.align	1
 406              		.global	BSP_LED_On
 407              		.syntax unified
 408              		.thumb
 409              		.thumb_func
 411              	BSP_LED_On:
 412              	.LVL16:
 413              	.LFB137:
 214:Drivers/BSP/STM32G4xx_Nucleo/stm32g4xx_nucleo.c ****   HAL_GPIO_WritePin(LED_PORT[Led], LED_PIN[Led], GPIO_PIN_SET);
 414              		.loc 1 214 1 is_stmt 1 view -0
 415              		.cfi_startproc
 416              		@ args = 0, pretend = 0, frame = 0
 417              		@ frame_needed = 0, uses_anonymous_args = 0
 214:Drivers/BSP/STM32G4xx_Nucleo/stm32g4xx_nucleo.c ****   HAL_GPIO_WritePin(LED_PORT[Led], LED_PIN[Led], GPIO_PIN_SET);
 418              		.loc 1 214 1 is_stmt 0 view .LVU94
 419 0000 08B5     		push	{r3, lr}
 420              		.cfi_def_cfa_offset 8
 421              		.cfi_offset 3, -8
 422              		.cfi_offset 14, -4
 215:Drivers/BSP/STM32G4xx_Nucleo/stm32g4xx_nucleo.c **** 
 423              		.loc 1 215 3 is_stmt 1 view .LVU95
 424 0002 0122     		movs	r2, #1
 425 0004 2021     		movs	r1, #32
 426 0006 4FF09040 		mov	r0, #1207959552
 427              	.LVL17:
 215:Drivers/BSP/STM32G4xx_Nucleo/stm32g4xx_nucleo.c **** 
 428              		.loc 1 215 3 is_stmt 0 view .LVU96
 429 000a FFF7FEFF 		bl	HAL_GPIO_WritePin
 430              	.LVL18:
 217:Drivers/BSP/STM32G4xx_Nucleo/stm32g4xx_nucleo.c **** }
 431              		.loc 1 217 3 is_stmt 1 view .LVU97
 218:Drivers/BSP/STM32G4xx_Nucleo/stm32g4xx_nucleo.c **** 
 432              		.loc 1 218 1 is_stmt 0 view .LVU98
 433 000e 0020     		movs	r0, #0
 434 0010 08BD     		pop	{r3, pc}
 435              		.cfi_endproc
 436              	.LFE137:
 438              		.section	.text.BSP_LED_Off,"ax",%progbits
 439              		.align	1
 440              		.global	BSP_LED_Off
 441              		.syntax unified
 442              		.thumb
 443              		.thumb_func
 445              	BSP_LED_Off:
 446              	.LVL19:
 447              	.LFB138:
 228:Drivers/BSP/STM32G4xx_Nucleo/stm32g4xx_nucleo.c ****   HAL_GPIO_WritePin(LED_PORT[Led], LED_PIN[Led], GPIO_PIN_RESET);
 448              		.loc 1 228 1 is_stmt 1 view -0
 449              		.cfi_startproc
ARM GAS  /tmp/ccvsXuDi.s 			page 21


 450              		@ args = 0, pretend = 0, frame = 0
 451              		@ frame_needed = 0, uses_anonymous_args = 0
 228:Drivers/BSP/STM32G4xx_Nucleo/stm32g4xx_nucleo.c ****   HAL_GPIO_WritePin(LED_PORT[Led], LED_PIN[Led], GPIO_PIN_RESET);
 452              		.loc 1 228 1 is_stmt 0 view .LVU100
 453 0000 08B5     		push	{r3, lr}
 454              		.cfi_def_cfa_offset 8
 455              		.cfi_offset 3, -8
 456              		.cfi_offset 14, -4
 229:Drivers/BSP/STM32G4xx_Nucleo/stm32g4xx_nucleo.c **** 
 457              		.loc 1 229 3 is_stmt 1 view .LVU101
 458 0002 0022     		movs	r2, #0
 459 0004 2021     		movs	r1, #32
 460 0006 4FF09040 		mov	r0, #1207959552
 461              	.LVL20:
 229:Drivers/BSP/STM32G4xx_Nucleo/stm32g4xx_nucleo.c **** 
 462              		.loc 1 229 3 is_stmt 0 view .LVU102
 463 000a FFF7FEFF 		bl	HAL_GPIO_WritePin
 464              	.LVL21:
 231:Drivers/BSP/STM32G4xx_Nucleo/stm32g4xx_nucleo.c **** }
 465              		.loc 1 231 3 is_stmt 1 view .LVU103
 232:Drivers/BSP/STM32G4xx_Nucleo/stm32g4xx_nucleo.c **** 
 466              		.loc 1 232 1 is_stmt 0 view .LVU104
 467 000e 0020     		movs	r0, #0
 468 0010 08BD     		pop	{r3, pc}
 469              		.cfi_endproc
 470              	.LFE138:
 472              		.section	.text.BSP_LED_Toggle,"ax",%progbits
 473              		.align	1
 474              		.global	BSP_LED_Toggle
 475              		.syntax unified
 476              		.thumb
 477              		.thumb_func
 479              	BSP_LED_Toggle:
 480              	.LVL22:
 481              	.LFB139:
 242:Drivers/BSP/STM32G4xx_Nucleo/stm32g4xx_nucleo.c ****   HAL_GPIO_TogglePin(LED_PORT[Led], LED_PIN[Led]);
 482              		.loc 1 242 1 is_stmt 1 view -0
 483              		.cfi_startproc
 484              		@ args = 0, pretend = 0, frame = 0
 485              		@ frame_needed = 0, uses_anonymous_args = 0
 242:Drivers/BSP/STM32G4xx_Nucleo/stm32g4xx_nucleo.c ****   HAL_GPIO_TogglePin(LED_PORT[Led], LED_PIN[Led]);
 486              		.loc 1 242 1 is_stmt 0 view .LVU106
 487 0000 08B5     		push	{r3, lr}
 488              		.cfi_def_cfa_offset 8
 489              		.cfi_offset 3, -8
 490              		.cfi_offset 14, -4
 243:Drivers/BSP/STM32G4xx_Nucleo/stm32g4xx_nucleo.c **** 
 491              		.loc 1 243 3 is_stmt 1 view .LVU107
 492 0002 2021     		movs	r1, #32
 493 0004 4FF09040 		mov	r0, #1207959552
 494              	.LVL23:
 243:Drivers/BSP/STM32G4xx_Nucleo/stm32g4xx_nucleo.c **** 
 495              		.loc 1 243 3 is_stmt 0 view .LVU108
 496 0008 FFF7FEFF 		bl	HAL_GPIO_TogglePin
 497              	.LVL24:
 245:Drivers/BSP/STM32G4xx_Nucleo/stm32g4xx_nucleo.c **** }
 498              		.loc 1 245 3 is_stmt 1 view .LVU109
ARM GAS  /tmp/ccvsXuDi.s 			page 22


 246:Drivers/BSP/STM32G4xx_Nucleo/stm32g4xx_nucleo.c **** 
 499              		.loc 1 246 1 is_stmt 0 view .LVU110
 500 000c 0020     		movs	r0, #0
 501 000e 08BD     		pop	{r3, pc}
 502              		.cfi_endproc
 503              	.LFE139:
 505              		.section	.text.BSP_LED_GetState,"ax",%progbits
 506              		.align	1
 507              		.global	BSP_LED_GetState
 508              		.syntax unified
 509              		.thumb
 510              		.thumb_func
 512              	BSP_LED_GetState:
 513              	.LVL25:
 514              	.LFB140:
 256:Drivers/BSP/STM32G4xx_Nucleo/stm32g4xx_nucleo.c ****   return (int32_t)HAL_GPIO_ReadPin(LED_PORT[Led], LED_PIN[Led]);
 515              		.loc 1 256 1 is_stmt 1 view -0
 516              		.cfi_startproc
 517              		@ args = 0, pretend = 0, frame = 0
 518              		@ frame_needed = 0, uses_anonymous_args = 0
 256:Drivers/BSP/STM32G4xx_Nucleo/stm32g4xx_nucleo.c ****   return (int32_t)HAL_GPIO_ReadPin(LED_PORT[Led], LED_PIN[Led]);
 519              		.loc 1 256 1 is_stmt 0 view .LVU112
 520 0000 08B5     		push	{r3, lr}
 521              		.cfi_def_cfa_offset 8
 522              		.cfi_offset 3, -8
 523              		.cfi_offset 14, -4
 257:Drivers/BSP/STM32G4xx_Nucleo/stm32g4xx_nucleo.c **** }
 524              		.loc 1 257 3 is_stmt 1 view .LVU113
 257:Drivers/BSP/STM32G4xx_Nucleo/stm32g4xx_nucleo.c **** }
 525              		.loc 1 257 19 is_stmt 0 view .LVU114
 526 0002 2021     		movs	r1, #32
 527 0004 4FF09040 		mov	r0, #1207959552
 528              	.LVL26:
 257:Drivers/BSP/STM32G4xx_Nucleo/stm32g4xx_nucleo.c **** }
 529              		.loc 1 257 19 view .LVU115
 530 0008 FFF7FEFF 		bl	HAL_GPIO_ReadPin
 531              	.LVL27:
 258:Drivers/BSP/STM32G4xx_Nucleo/stm32g4xx_nucleo.c **** 
 532              		.loc 1 258 1 view .LVU116
 533 000c 08BD     		pop	{r3, pc}
 534              		.cfi_endproc
 535              	.LFE140:
 537              		.section	.text.BSP_PB_Init,"ax",%progbits
 538              		.align	1
 539              		.global	BSP_PB_Init
 540              		.syntax unified
 541              		.thumb
 542              		.thumb_func
 544              	BSP_PB_Init:
 545              	.LVL28:
 546              	.LFB141:
 274:Drivers/BSP/STM32G4xx_Nucleo/stm32g4xx_nucleo.c ****   GPIO_InitTypeDef gpio_init_structure;
 547              		.loc 1 274 1 is_stmt 1 view -0
 548              		.cfi_startproc
 549              		@ args = 0, pretend = 0, frame = 24
 550              		@ frame_needed = 0, uses_anonymous_args = 0
 274:Drivers/BSP/STM32G4xx_Nucleo/stm32g4xx_nucleo.c ****   GPIO_InitTypeDef gpio_init_structure;
ARM GAS  /tmp/ccvsXuDi.s 			page 23


 551              		.loc 1 274 1 is_stmt 0 view .LVU118
 552 0000 10B5     		push	{r4, lr}
 553              		.cfi_def_cfa_offset 8
 554              		.cfi_offset 4, -8
 555              		.cfi_offset 14, -4
 556 0002 86B0     		sub	sp, sp, #24
 557              		.cfi_def_cfa_offset 32
 275:Drivers/BSP/STM32G4xx_Nucleo/stm32g4xx_nucleo.c ****   static BSP_EXTI_LineCallback ButtonCallback[BUTTONn] = {BUTTON_USER_EXTI_Callback};
 558              		.loc 1 275 3 is_stmt 1 view .LVU119
 276:Drivers/BSP/STM32G4xx_Nucleo/stm32g4xx_nucleo.c ****   static uint32_t BSP_BUTTON_PRIO [BUTTONn] = {BSP_BUTTON_USER_IT_PRIORITY};
 559              		.loc 1 276 3 view .LVU120
 277:Drivers/BSP/STM32G4xx_Nucleo/stm32g4xx_nucleo.c ****   static const uint32_t BUTTON_EXTI_LINE[BUTTONn] = {USER_BUTTON_EXTI_LINE};
 560              		.loc 1 277 3 view .LVU121
 278:Drivers/BSP/STM32G4xx_Nucleo/stm32g4xx_nucleo.c **** 
 561              		.loc 1 278 3 view .LVU122
 281:Drivers/BSP/STM32G4xx_Nucleo/stm32g4xx_nucleo.c **** 
 562              		.loc 1 281 3 view .LVU123
 563              	.LBB6:
 281:Drivers/BSP/STM32G4xx_Nucleo/stm32g4xx_nucleo.c **** 
 564              		.loc 1 281 3 view .LVU124
 281:Drivers/BSP/STM32G4xx_Nucleo/stm32g4xx_nucleo.c **** 
 565              		.loc 1 281 3 view .LVU125
 566 0004 1B4B     		ldr	r3, .L36
 567 0006 DA6C     		ldr	r2, [r3, #76]
 568 0008 42F00402 		orr	r2, r2, #4
 569 000c DA64     		str	r2, [r3, #76]
 281:Drivers/BSP/STM32G4xx_Nucleo/stm32g4xx_nucleo.c **** 
 570              		.loc 1 281 3 view .LVU126
 571 000e DB6C     		ldr	r3, [r3, #76]
 572 0010 03F00403 		and	r3, r3, #4
 573 0014 0093     		str	r3, [sp]
 281:Drivers/BSP/STM32G4xx_Nucleo/stm32g4xx_nucleo.c **** 
 574              		.loc 1 281 3 view .LVU127
 575 0016 009B     		ldr	r3, [sp]
 576              	.LBE6:
 281:Drivers/BSP/STM32G4xx_Nucleo/stm32g4xx_nucleo.c **** 
 577              		.loc 1 281 3 view .LVU128
 283:Drivers/BSP/STM32G4xx_Nucleo/stm32g4xx_nucleo.c ****   gpio_init_structure.Pull = GPIO_PULLDOWN;
 578              		.loc 1 283 3 view .LVU129
 283:Drivers/BSP/STM32G4xx_Nucleo/stm32g4xx_nucleo.c ****   gpio_init_structure.Pull = GPIO_PULLDOWN;
 579              		.loc 1 283 27 is_stmt 0 view .LVU130
 580 0018 4FF40053 		mov	r3, #8192
 581 001c 0193     		str	r3, [sp, #4]
 284:Drivers/BSP/STM32G4xx_Nucleo/stm32g4xx_nucleo.c ****   gpio_init_structure.Speed = GPIO_SPEED_FREQ_HIGH;
 582              		.loc 1 284 3 is_stmt 1 view .LVU131
 284:Drivers/BSP/STM32G4xx_Nucleo/stm32g4xx_nucleo.c ****   gpio_init_structure.Speed = GPIO_SPEED_FREQ_HIGH;
 583              		.loc 1 284 28 is_stmt 0 view .LVU132
 584 001e 0223     		movs	r3, #2
 585 0020 0393     		str	r3, [sp, #12]
 285:Drivers/BSP/STM32G4xx_Nucleo/stm32g4xx_nucleo.c **** 
 586              		.loc 1 285 3 is_stmt 1 view .LVU133
 285:Drivers/BSP/STM32G4xx_Nucleo/stm32g4xx_nucleo.c **** 
 587              		.loc 1 285 29 is_stmt 0 view .LVU134
 588 0022 0493     		str	r3, [sp, #16]
 287:Drivers/BSP/STM32G4xx_Nucleo/stm32g4xx_nucleo.c ****   {
 589              		.loc 1 287 3 is_stmt 1 view .LVU135
 287:Drivers/BSP/STM32G4xx_Nucleo/stm32g4xx_nucleo.c ****   {
ARM GAS  /tmp/ccvsXuDi.s 			page 24


 590              		.loc 1 287 5 is_stmt 0 view .LVU136
 591 0024 41B9     		cbnz	r1, .L33
 290:Drivers/BSP/STM32G4xx_Nucleo/stm32g4xx_nucleo.c ****     HAL_GPIO_Init(BUTTON_PORT[Button], &gpio_init_structure);
 592              		.loc 1 290 5 is_stmt 1 view .LVU137
 290:Drivers/BSP/STM32G4xx_Nucleo/stm32g4xx_nucleo.c ****     HAL_GPIO_Init(BUTTON_PORT[Button], &gpio_init_structure);
 593              		.loc 1 290 30 is_stmt 0 view .LVU138
 594 0026 0023     		movs	r3, #0
 595 0028 0293     		str	r3, [sp, #8]
 291:Drivers/BSP/STM32G4xx_Nucleo/stm32g4xx_nucleo.c ****   }
 596              		.loc 1 291 5 is_stmt 1 view .LVU139
 597 002a 01A9     		add	r1, sp, #4
 598              	.LVL29:
 291:Drivers/BSP/STM32G4xx_Nucleo/stm32g4xx_nucleo.c ****   }
 599              		.loc 1 291 5 is_stmt 0 view .LVU140
 600 002c 1248     		ldr	r0, .L36+4
 601              	.LVL30:
 291:Drivers/BSP/STM32G4xx_Nucleo/stm32g4xx_nucleo.c ****   }
 602              		.loc 1 291 5 view .LVU141
 603 002e FFF7FEFF 		bl	HAL_GPIO_Init
 604              	.LVL31:
 605              	.L34:
 308:Drivers/BSP/STM32G4xx_Nucleo/stm32g4xx_nucleo.c **** }
 606              		.loc 1 308 3 is_stmt 1 view .LVU142
 309:Drivers/BSP/STM32G4xx_Nucleo/stm32g4xx_nucleo.c **** 
 607              		.loc 1 309 1 is_stmt 0 view .LVU143
 608 0032 0020     		movs	r0, #0
 609 0034 06B0     		add	sp, sp, #24
 610              		.cfi_remember_state
 611              		.cfi_def_cfa_offset 8
 612              		@ sp needed
 613 0036 10BD     		pop	{r4, pc}
 614              	.LVL32:
 615              	.L33:
 616              		.cfi_restore_state
 309:Drivers/BSP/STM32G4xx_Nucleo/stm32g4xx_nucleo.c **** 
 617              		.loc 1 309 1 view .LVU144
 618 0038 0446     		mov	r4, r0
 296:Drivers/BSP/STM32G4xx_Nucleo/stm32g4xx_nucleo.c **** 
 619              		.loc 1 296 5 is_stmt 1 view .LVU145
 296:Drivers/BSP/STM32G4xx_Nucleo/stm32g4xx_nucleo.c **** 
 620              		.loc 1 296 30 is_stmt 0 view .LVU146
 621 003a 4FF48813 		mov	r3, #1114112
 622 003e 0293     		str	r3, [sp, #8]
 298:Drivers/BSP/STM32G4xx_Nucleo/stm32g4xx_nucleo.c **** 
 623              		.loc 1 298 5 is_stmt 1 view .LVU147
 624 0040 01A9     		add	r1, sp, #4
 625              	.LVL33:
 298:Drivers/BSP/STM32G4xx_Nucleo/stm32g4xx_nucleo.c **** 
 626              		.loc 1 298 5 is_stmt 0 view .LVU148
 627 0042 0D48     		ldr	r0, .L36+4
 628              	.LVL34:
 298:Drivers/BSP/STM32G4xx_Nucleo/stm32g4xx_nucleo.c **** 
 629              		.loc 1 298 5 view .LVU149
 630 0044 FFF7FEFF 		bl	HAL_GPIO_Init
 631              	.LVL35:
 300:Drivers/BSP/STM32G4xx_Nucleo/stm32g4xx_nucleo.c ****     (void)HAL_EXTI_RegisterCallback(&hpb_exti[Button],  HAL_EXTI_COMMON_CB_ID, ButtonCallback[Butto
 632              		.loc 1 300 5 is_stmt 1 view .LVU150
ARM GAS  /tmp/ccvsXuDi.s 			page 25


 300:Drivers/BSP/STM32G4xx_Nucleo/stm32g4xx_nucleo.c ****     (void)HAL_EXTI_RegisterCallback(&hpb_exti[Button],  HAL_EXTI_COMMON_CB_ID, ButtonCallback[Butto
 633              		.loc 1 300 11 is_stmt 0 view .LVU151
 634 0048 0C4B     		ldr	r3, .L36+8
 635 004a 03EBC404 		add	r4, r3, r4, lsl #3
 636 004e 0C49     		ldr	r1, .L36+12
 637 0050 2046     		mov	r0, r4
 638 0052 FFF7FEFF 		bl	HAL_EXTI_GetHandle
 639              	.LVL36:
 301:Drivers/BSP/STM32G4xx_Nucleo/stm32g4xx_nucleo.c **** 
 640              		.loc 1 301 5 is_stmt 1 view .LVU152
 301:Drivers/BSP/STM32G4xx_Nucleo/stm32g4xx_nucleo.c **** 
 641              		.loc 1 301 11 is_stmt 0 view .LVU153
 642 0056 0B4A     		ldr	r2, .L36+16
 643 0058 0021     		movs	r1, #0
 644 005a 2046     		mov	r0, r4
 645 005c FFF7FEFF 		bl	HAL_EXTI_RegisterCallback
 646              	.LVL37:
 304:Drivers/BSP/STM32G4xx_Nucleo/stm32g4xx_nucleo.c ****     HAL_NVIC_EnableIRQ((BUTTON_IRQn[Button]));
 647              		.loc 1 304 5 is_stmt 1 view .LVU154
 648 0060 0022     		movs	r2, #0
 649 0062 0F21     		movs	r1, #15
 650 0064 2820     		movs	r0, #40
 651 0066 FFF7FEFF 		bl	HAL_NVIC_SetPriority
 652              	.LVL38:
 305:Drivers/BSP/STM32G4xx_Nucleo/stm32g4xx_nucleo.c ****   }
 653              		.loc 1 305 5 view .LVU155
 654 006a 2820     		movs	r0, #40
 655 006c FFF7FEFF 		bl	HAL_NVIC_EnableIRQ
 656              	.LVL39:
 657 0070 DFE7     		b	.L34
 658              	.L37:
 659 0072 00BF     		.align	2
 660              	.L36:
 661 0074 00100240 		.word	1073876992
 662 0078 00080048 		.word	1207961600
 663 007c 00000000 		.word	hpb_exti
 664 0080 0D000006 		.word	100663309
 665 0084 00000000 		.word	BUTTON_USER_EXTI_Callback
 666              		.cfi_endproc
 667              	.LFE141:
 669              		.section	.text.BSP_PB_DeInit,"ax",%progbits
 670              		.align	1
 671              		.global	BSP_PB_DeInit
 672              		.syntax unified
 673              		.thumb
 674              		.thumb_func
 676              	BSP_PB_DeInit:
 677              	.LVL40:
 678              	.LFB142:
 320:Drivers/BSP/STM32G4xx_Nucleo/stm32g4xx_nucleo.c ****   HAL_NVIC_DisableIRQ((BUTTON_IRQn[Button]));
 679              		.loc 1 320 1 view -0
 680              		.cfi_startproc
 681              		@ args = 0, pretend = 0, frame = 0
 682              		@ frame_needed = 0, uses_anonymous_args = 0
 320:Drivers/BSP/STM32G4xx_Nucleo/stm32g4xx_nucleo.c ****   HAL_NVIC_DisableIRQ((BUTTON_IRQn[Button]));
 683              		.loc 1 320 1 is_stmt 0 view .LVU157
 684 0000 08B5     		push	{r3, lr}
ARM GAS  /tmp/ccvsXuDi.s 			page 26


 685              		.cfi_def_cfa_offset 8
 686              		.cfi_offset 3, -8
 687              		.cfi_offset 14, -4
 321:Drivers/BSP/STM32G4xx_Nucleo/stm32g4xx_nucleo.c ****   HAL_GPIO_DeInit(BUTTON_PORT[Button], BUTTON_PIN[Button]);
 688              		.loc 1 321 3 is_stmt 1 view .LVU158
 689 0002 2820     		movs	r0, #40
 690              	.LVL41:
 321:Drivers/BSP/STM32G4xx_Nucleo/stm32g4xx_nucleo.c ****   HAL_GPIO_DeInit(BUTTON_PORT[Button], BUTTON_PIN[Button]);
 691              		.loc 1 321 3 is_stmt 0 view .LVU159
 692 0004 FFF7FEFF 		bl	HAL_NVIC_DisableIRQ
 693              	.LVL42:
 322:Drivers/BSP/STM32G4xx_Nucleo/stm32g4xx_nucleo.c **** 
 694              		.loc 1 322 3 is_stmt 1 view .LVU160
 695 0008 4FF40051 		mov	r1, #8192
 696 000c 0248     		ldr	r0, .L40
 697 000e FFF7FEFF 		bl	HAL_GPIO_DeInit
 698              	.LVL43:
 324:Drivers/BSP/STM32G4xx_Nucleo/stm32g4xx_nucleo.c **** }
 699              		.loc 1 324 3 view .LVU161
 325:Drivers/BSP/STM32G4xx_Nucleo/stm32g4xx_nucleo.c **** 
 700              		.loc 1 325 1 is_stmt 0 view .LVU162
 701 0012 0020     		movs	r0, #0
 702 0014 08BD     		pop	{r3, pc}
 703              	.L41:
 704 0016 00BF     		.align	2
 705              	.L40:
 706 0018 00080048 		.word	1207961600
 707              		.cfi_endproc
 708              	.LFE142:
 710              		.section	.text.BSP_PB_GetState,"ax",%progbits
 711              		.align	1
 712              		.global	BSP_PB_GetState
 713              		.syntax unified
 714              		.thumb
 715              		.thumb_func
 717              	BSP_PB_GetState:
 718              	.LVL44:
 719              	.LFB143:
 335:Drivers/BSP/STM32G4xx_Nucleo/stm32g4xx_nucleo.c ****   return (int32_t)HAL_GPIO_ReadPin(BUTTON_PORT[Button], BUTTON_PIN[Button]);
 720              		.loc 1 335 1 is_stmt 1 view -0
 721              		.cfi_startproc
 722              		@ args = 0, pretend = 0, frame = 0
 723              		@ frame_needed = 0, uses_anonymous_args = 0
 335:Drivers/BSP/STM32G4xx_Nucleo/stm32g4xx_nucleo.c ****   return (int32_t)HAL_GPIO_ReadPin(BUTTON_PORT[Button], BUTTON_PIN[Button]);
 724              		.loc 1 335 1 is_stmt 0 view .LVU164
 725 0000 08B5     		push	{r3, lr}
 726              		.cfi_def_cfa_offset 8
 727              		.cfi_offset 3, -8
 728              		.cfi_offset 14, -4
 336:Drivers/BSP/STM32G4xx_Nucleo/stm32g4xx_nucleo.c **** }
 729              		.loc 1 336 3 is_stmt 1 view .LVU165
 336:Drivers/BSP/STM32G4xx_Nucleo/stm32g4xx_nucleo.c **** }
 730              		.loc 1 336 19 is_stmt 0 view .LVU166
 731 0002 4FF40051 		mov	r1, #8192
 732 0006 0248     		ldr	r0, .L44
 733              	.LVL45:
 336:Drivers/BSP/STM32G4xx_Nucleo/stm32g4xx_nucleo.c **** }
ARM GAS  /tmp/ccvsXuDi.s 			page 27


 734              		.loc 1 336 19 view .LVU167
 735 0008 FFF7FEFF 		bl	HAL_GPIO_ReadPin
 736              	.LVL46:
 337:Drivers/BSP/STM32G4xx_Nucleo/stm32g4xx_nucleo.c **** 
 737              		.loc 1 337 1 view .LVU168
 738 000c 08BD     		pop	{r3, pc}
 739              	.L45:
 740 000e 00BF     		.align	2
 741              	.L44:
 742 0010 00080048 		.word	1207961600
 743              		.cfi_endproc
 744              	.LFE143:
 746              		.section	.text.BSP_PB_IRQHandler,"ax",%progbits
 747              		.align	1
 748              		.global	BSP_PB_IRQHandler
 749              		.syntax unified
 750              		.thumb
 751              		.thumb_func
 753              	BSP_PB_IRQHandler:
 754              	.LVL47:
 755              	.LFB144:
 345:Drivers/BSP/STM32G4xx_Nucleo/stm32g4xx_nucleo.c ****   HAL_EXTI_IRQHandler(&hpb_exti[Button]);
 756              		.loc 1 345 1 is_stmt 1 view -0
 757              		.cfi_startproc
 758              		@ args = 0, pretend = 0, frame = 0
 759              		@ frame_needed = 0, uses_anonymous_args = 0
 345:Drivers/BSP/STM32G4xx_Nucleo/stm32g4xx_nucleo.c ****   HAL_EXTI_IRQHandler(&hpb_exti[Button]);
 760              		.loc 1 345 1 is_stmt 0 view .LVU170
 761 0000 08B5     		push	{r3, lr}
 762              		.cfi_def_cfa_offset 8
 763              		.cfi_offset 3, -8
 764              		.cfi_offset 14, -4
 346:Drivers/BSP/STM32G4xx_Nucleo/stm32g4xx_nucleo.c **** }
 765              		.loc 1 346 3 is_stmt 1 view .LVU171
 766 0002 034B     		ldr	r3, .L48
 767 0004 03EBC000 		add	r0, r3, r0, lsl #3
 768              	.LVL48:
 346:Drivers/BSP/STM32G4xx_Nucleo/stm32g4xx_nucleo.c **** }
 769              		.loc 1 346 3 is_stmt 0 view .LVU172
 770 0008 FFF7FEFF 		bl	HAL_EXTI_IRQHandler
 771              	.LVL49:
 347:Drivers/BSP/STM32G4xx_Nucleo/stm32g4xx_nucleo.c **** 
 772              		.loc 1 347 1 view .LVU173
 773 000c 08BD     		pop	{r3, pc}
 774              	.L49:
 775 000e 00BF     		.align	2
 776              	.L48:
 777 0010 00000000 		.word	hpb_exti
 778              		.cfi_endproc
 779              	.LFE144:
 781              		.section	.text.BSP_PB_Callback,"ax",%progbits
 782              		.align	1
 783              		.weak	BSP_PB_Callback
 784              		.syntax unified
 785              		.thumb
 786              		.thumb_func
 788              	BSP_PB_Callback:
ARM GAS  /tmp/ccvsXuDi.s 			page 28


 789              	.LVL50:
 790              	.LFB145:
 355:Drivers/BSP/STM32G4xx_Nucleo/stm32g4xx_nucleo.c ****   /* Prevent unused argument(s) compilation warning */
 791              		.loc 1 355 1 is_stmt 1 view -0
 792              		.cfi_startproc
 793              		@ args = 0, pretend = 0, frame = 0
 794              		@ frame_needed = 0, uses_anonymous_args = 0
 795              		@ link register save eliminated.
 357:Drivers/BSP/STM32G4xx_Nucleo/stm32g4xx_nucleo.c **** 
 796              		.loc 1 357 3 view .LVU175
 361:Drivers/BSP/STM32G4xx_Nucleo/stm32g4xx_nucleo.c **** #endif /* USE_NUCLEO_64 */
 797              		.loc 1 361 1 is_stmt 0 view .LVU176
 798 0000 7047     		bx	lr
 799              		.cfi_endproc
 800              	.LFE145:
 802              		.section	.text.BUTTON_USER_EXTI_Callback,"ax",%progbits
 803              		.align	1
 804              		.syntax unified
 805              		.thumb
 806              		.thumb_func
 808              	BUTTON_USER_EXTI_Callback:
 809              	.LFB151:
 597:Drivers/BSP/STM32G4xx_Nucleo/stm32g4xx_nucleo.c ****   BSP_PB_Callback(BUTTON_USER);
 810              		.loc 1 597 1 is_stmt 1 view -0
 811              		.cfi_startproc
 812              		@ args = 0, pretend = 0, frame = 0
 813              		@ frame_needed = 0, uses_anonymous_args = 0
 814 0000 08B5     		push	{r3, lr}
 815              		.cfi_def_cfa_offset 8
 816              		.cfi_offset 3, -8
 817              		.cfi_offset 14, -4
 598:Drivers/BSP/STM32G4xx_Nucleo/stm32g4xx_nucleo.c **** }
 818              		.loc 1 598 3 view .LVU178
 819 0002 0020     		movs	r0, #0
 820 0004 FFF7FEFF 		bl	BSP_PB_Callback
 821              	.LVL51:
 599:Drivers/BSP/STM32G4xx_Nucleo/stm32g4xx_nucleo.c **** #endif /* USE_NUCLEO_64 */
 822              		.loc 1 599 1 is_stmt 0 view .LVU179
 823 0008 08BD     		pop	{r3, pc}
 824              		.cfi_endproc
 825              	.LFE151:
 827              		.section	.text.BSP_COM_DeInit,"ax",%progbits
 828              		.align	1
 829              		.global	BSP_COM_DeInit
 830              		.syntax unified
 831              		.thumb
 832              		.thumb_func
 834              	BSP_COM_DeInit:
 835              	.LVL52:
 836              	.LFB147:
 412:Drivers/BSP/STM32G4xx_Nucleo/stm32g4xx_nucleo.c ****   int32_t ret = BSP_ERROR_NONE;
 837              		.loc 1 412 1 is_stmt 1 view -0
 838              		.cfi_startproc
 839              		@ args = 0, pretend = 0, frame = 0
 840              		@ frame_needed = 0, uses_anonymous_args = 0
 413:Drivers/BSP/STM32G4xx_Nucleo/stm32g4xx_nucleo.c **** 
 841              		.loc 1 413 3 view .LVU181
ARM GAS  /tmp/ccvsXuDi.s 			page 29


 415:Drivers/BSP/STM32G4xx_Nucleo/stm32g4xx_nucleo.c ****   {
 842              		.loc 1 415 3 view .LVU182
 415:Drivers/BSP/STM32G4xx_Nucleo/stm32g4xx_nucleo.c ****   {
 843              		.loc 1 415 5 is_stmt 0 view .LVU183
 844 0000 80B9     		cbnz	r0, .L55
 412:Drivers/BSP/STM32G4xx_Nucleo/stm32g4xx_nucleo.c ****   int32_t ret = BSP_ERROR_NONE;
 845              		.loc 1 412 1 view .LVU184
 846 0002 10B5     		push	{r4, lr}
 847              		.cfi_def_cfa_offset 8
 848              		.cfi_offset 4, -8
 849              		.cfi_offset 14, -4
 850 0004 0346     		mov	r3, r0
 422:Drivers/BSP/STM32G4xx_Nucleo/stm32g4xx_nucleo.c **** 
 851              		.loc 1 422 5 is_stmt 1 view .LVU185
 422:Drivers/BSP/STM32G4xx_Nucleo/stm32g4xx_nucleo.c **** 
 852              		.loc 1 422 29 is_stmt 0 view .LVU186
 853 0006 0A4A     		ldr	r2, .L61
 854 0008 9421     		movs	r1, #148
 855 000a 01FB03F3 		mul	r3, r1, r3
 856 000e D418     		adds	r4, r2, r3
 857 0010 0849     		ldr	r1, .L61+4
 858 0012 D150     		str	r1, [r2, r3]
 425:Drivers/BSP/STM32G4xx_Nucleo/stm32g4xx_nucleo.c **** #endif /* (USE_HAL_UART_REGISTER_CALLBACKS == 0) */
 859              		.loc 1 425 5 is_stmt 1 view .LVU187
 860 0014 2046     		mov	r0, r4
 861              	.LVL53:
 425:Drivers/BSP/STM32G4xx_Nucleo/stm32g4xx_nucleo.c **** #endif /* (USE_HAL_UART_REGISTER_CALLBACKS == 0) */
 862              		.loc 1 425 5 is_stmt 0 view .LVU188
 863 0016 FFF7FEFF 		bl	COM1_MspDeInit
 864              	.LVL54:
 428:Drivers/BSP/STM32G4xx_Nucleo/stm32g4xx_nucleo.c ****     {
 865              		.loc 1 428 5 is_stmt 1 view .LVU189
 428:Drivers/BSP/STM32G4xx_Nucleo/stm32g4xx_nucleo.c ****     {
 866              		.loc 1 428 8 is_stmt 0 view .LVU190
 867 001a 2046     		mov	r0, r4
 868 001c FFF7FEFF 		bl	HAL_UART_DeInit
 869              	.LVL55:
 428:Drivers/BSP/STM32G4xx_Nucleo/stm32g4xx_nucleo.c ****     {
 870              		.loc 1 428 7 discriminator 1 view .LVU191
 871 0020 18B9     		cbnz	r0, .L56
 872              	.LVL56:
 873              	.L53:
 435:Drivers/BSP/STM32G4xx_Nucleo/stm32g4xx_nucleo.c **** 
 874              		.loc 1 435 1 view .LVU192
 875 0022 10BD     		pop	{r4, pc}
 876              	.LVL57:
 877              	.L55:
 878              		.cfi_def_cfa_offset 0
 879              		.cfi_restore 4
 880              		.cfi_restore 14
 417:Drivers/BSP/STM32G4xx_Nucleo/stm32g4xx_nucleo.c ****   }
 881              		.loc 1 417 9 view .LVU193
 882 0024 6FF00100 		mvn	r0, #1
 883              	.LVL58:
 435:Drivers/BSP/STM32G4xx_Nucleo/stm32g4xx_nucleo.c **** 
 884              		.loc 1 435 1 view .LVU194
 885 0028 7047     		bx	lr
ARM GAS  /tmp/ccvsXuDi.s 			page 30


 886              	.L56:
 887              		.cfi_def_cfa_offset 8
 888              		.cfi_offset 4, -8
 889              		.cfi_offset 14, -4
 430:Drivers/BSP/STM32G4xx_Nucleo/stm32g4xx_nucleo.c ****     }
 890              		.loc 1 430 14 view .LVU195
 891 002a 6FF00300 		mvn	r0, #3
 892              	.LVL59:
 430:Drivers/BSP/STM32G4xx_Nucleo/stm32g4xx_nucleo.c ****     }
 893              		.loc 1 430 14 view .LVU196
 894 002e F8E7     		b	.L53
 895              	.L62:
 896              		.align	2
 897              	.L61:
 898 0030 00000000 		.word	hcom_uart
 899 0034 00800040 		.word	1073774592
 900              		.cfi_endproc
 901              	.LFE147:
 903              		.section	.text.MX_LPUART1_Init,"ax",%progbits
 904              		.align	1
 905              		.weak	MX_LPUART1_Init
 906              		.syntax unified
 907              		.thumb
 908              		.thumb_func
 910              	MX_LPUART1_Init:
 911              	.LVL60:
 912              	.LFB148:
 445:Drivers/BSP/STM32G4xx_Nucleo/stm32g4xx_nucleo.c ****   /* USART configuration */
 913              		.loc 1 445 1 is_stmt 1 view -0
 914              		.cfi_startproc
 915              		@ args = 0, pretend = 0, frame = 0
 916              		@ frame_needed = 0, uses_anonymous_args = 0
 445:Drivers/BSP/STM32G4xx_Nucleo/stm32g4xx_nucleo.c ****   /* USART configuration */
 917              		.loc 1 445 1 is_stmt 0 view .LVU198
 918 0000 08B5     		push	{r3, lr}
 919              		.cfi_def_cfa_offset 8
 920              		.cfi_offset 3, -8
 921              		.cfi_offset 14, -4
 447:Drivers/BSP/STM32G4xx_Nucleo/stm32g4xx_nucleo.c ****  huart->Init.BaudRate     = COM_Init->BaudRate;
 922              		.loc 1 447 2 is_stmt 1 view .LVU199
 447:Drivers/BSP/STM32G4xx_Nucleo/stm32g4xx_nucleo.c ****  huart->Init.BaudRate     = COM_Init->BaudRate;
 923              		.loc 1 447 27 is_stmt 0 view .LVU200
 924 0002 0A4A     		ldr	r2, .L65
 925 0004 0260     		str	r2, [r0]
 448:Drivers/BSP/STM32G4xx_Nucleo/stm32g4xx_nucleo.c ****  huart->Init.Mode         = UART_MODE_TX_RX;
 926              		.loc 1 448 2 is_stmt 1 view .LVU201
 448:Drivers/BSP/STM32G4xx_Nucleo/stm32g4xx_nucleo.c ****  huart->Init.Mode         = UART_MODE_TX_RX;
 927              		.loc 1 448 37 is_stmt 0 view .LVU202
 928 0006 0A68     		ldr	r2, [r1]
 448:Drivers/BSP/STM32G4xx_Nucleo/stm32g4xx_nucleo.c ****  huart->Init.Mode         = UART_MODE_TX_RX;
 929              		.loc 1 448 27 view .LVU203
 930 0008 4260     		str	r2, [r0, #4]
 449:Drivers/BSP/STM32G4xx_Nucleo/stm32g4xx_nucleo.c ****  huart->Init.Parity       = (uint32_t)COM_Init->Parity;
 931              		.loc 1 449 2 is_stmt 1 view .LVU204
 449:Drivers/BSP/STM32G4xx_Nucleo/stm32g4xx_nucleo.c ****  huart->Init.Parity       = (uint32_t)COM_Init->Parity;
 932              		.loc 1 449 27 is_stmt 0 view .LVU205
 933 000a 0C22     		movs	r2, #12
ARM GAS  /tmp/ccvsXuDi.s 			page 31


 934 000c 4261     		str	r2, [r0, #20]
 450:Drivers/BSP/STM32G4xx_Nucleo/stm32g4xx_nucleo.c ****  huart->Init.WordLength   = COM_Init->WordLength;
 935              		.loc 1 450 2 is_stmt 1 view .LVU206
 450:Drivers/BSP/STM32G4xx_Nucleo/stm32g4xx_nucleo.c ****  huart->Init.WordLength   = COM_Init->WordLength;
 936              		.loc 1 450 47 is_stmt 0 view .LVU207
 937 000e 4A89     		ldrh	r2, [r1, #10]
 450:Drivers/BSP/STM32G4xx_Nucleo/stm32g4xx_nucleo.c ****  huart->Init.WordLength   = COM_Init->WordLength;
 938              		.loc 1 450 27 view .LVU208
 939 0010 0261     		str	r2, [r0, #16]
 451:Drivers/BSP/STM32G4xx_Nucleo/stm32g4xx_nucleo.c ****  huart->Init.StopBits     = (uint32_t)COM_Init->StopBits;
 940              		.loc 1 451 2 is_stmt 1 view .LVU209
 451:Drivers/BSP/STM32G4xx_Nucleo/stm32g4xx_nucleo.c ****  huart->Init.StopBits     = (uint32_t)COM_Init->StopBits;
 941              		.loc 1 451 37 is_stmt 0 view .LVU210
 942 0012 4A68     		ldr	r2, [r1, #4]
 451:Drivers/BSP/STM32G4xx_Nucleo/stm32g4xx_nucleo.c ****  huart->Init.StopBits     = (uint32_t)COM_Init->StopBits;
 943              		.loc 1 451 27 view .LVU211
 944 0014 8260     		str	r2, [r0, #8]
 452:Drivers/BSP/STM32G4xx_Nucleo/stm32g4xx_nucleo.c ****  huart->Init.HwFlowCtl    = (uint32_t)COM_Init->HwFlowCtl;
 945              		.loc 1 452 2 is_stmt 1 view .LVU212
 452:Drivers/BSP/STM32G4xx_Nucleo/stm32g4xx_nucleo.c ****  huart->Init.HwFlowCtl    = (uint32_t)COM_Init->HwFlowCtl;
 946              		.loc 1 452 47 is_stmt 0 view .LVU213
 947 0016 0A89     		ldrh	r2, [r1, #8]
 452:Drivers/BSP/STM32G4xx_Nucleo/stm32g4xx_nucleo.c ****  huart->Init.HwFlowCtl    = (uint32_t)COM_Init->HwFlowCtl;
 948              		.loc 1 452 27 view .LVU214
 949 0018 C260     		str	r2, [r0, #12]
 453:Drivers/BSP/STM32G4xx_Nucleo/stm32g4xx_nucleo.c ****  huart->Init.OverSampling = UART_OVERSAMPLING_8;
 950              		.loc 1 453 2 is_stmt 1 view .LVU215
 453:Drivers/BSP/STM32G4xx_Nucleo/stm32g4xx_nucleo.c ****  huart->Init.OverSampling = UART_OVERSAMPLING_8;
 951              		.loc 1 453 47 is_stmt 0 view .LVU216
 952 001a 8A89     		ldrh	r2, [r1, #12]
 453:Drivers/BSP/STM32G4xx_Nucleo/stm32g4xx_nucleo.c ****  huart->Init.OverSampling = UART_OVERSAMPLING_8;
 953              		.loc 1 453 27 view .LVU217
 954 001c 8261     		str	r2, [r0, #24]
 454:Drivers/BSP/STM32G4xx_Nucleo/stm32g4xx_nucleo.c **** 
 955              		.loc 1 454 2 is_stmt 1 view .LVU218
 454:Drivers/BSP/STM32G4xx_Nucleo/stm32g4xx_nucleo.c **** 
 956              		.loc 1 454 27 is_stmt 0 view .LVU219
 957 001e 4FF40042 		mov	r2, #32768
 958 0022 C261     		str	r2, [r0, #28]
 456:Drivers/BSP/STM32G4xx_Nucleo/stm32g4xx_nucleo.c **** }
 959              		.loc 1 456 2 is_stmt 1 view .LVU220
 456:Drivers/BSP/STM32G4xx_Nucleo/stm32g4xx_nucleo.c **** }
 960              		.loc 1 456 9 is_stmt 0 view .LVU221
 961 0024 FFF7FEFF 		bl	HAL_UART_Init
 962              	.LVL61:
 457:Drivers/BSP/STM32G4xx_Nucleo/stm32g4xx_nucleo.c **** 
 963              		.loc 1 457 1 view .LVU222
 964 0028 08BD     		pop	{r3, pc}
 965              	.L66:
 966 002a 00BF     		.align	2
 967              	.L65:
 968 002c 00800040 		.word	1073774592
 969              		.cfi_endproc
 970              	.LFE148:
 972              		.section	.text.BSP_COM_Init,"ax",%progbits
 973              		.align	1
 974              		.global	BSP_COM_Init
ARM GAS  /tmp/ccvsXuDi.s 			page 32


 975              		.syntax unified
 976              		.thumb
 977              		.thumb_func
 979              	BSP_COM_Init:
 980              	.LVL62:
 981              	.LFB146:
 374:Drivers/BSP/STM32G4xx_Nucleo/stm32g4xx_nucleo.c ****   int32_t ret = BSP_ERROR_NONE;
 982              		.loc 1 374 1 is_stmt 1 view -0
 983              		.cfi_startproc
 984              		@ args = 0, pretend = 0, frame = 0
 985              		@ frame_needed = 0, uses_anonymous_args = 0
 375:Drivers/BSP/STM32G4xx_Nucleo/stm32g4xx_nucleo.c **** 
 986              		.loc 1 375 3 view .LVU224
 377:Drivers/BSP/STM32G4xx_Nucleo/stm32g4xx_nucleo.c ****   {
 987              		.loc 1 377 3 view .LVU225
 377:Drivers/BSP/STM32G4xx_Nucleo/stm32g4xx_nucleo.c ****   {
 988              		.loc 1 377 5 is_stmt 0 view .LVU226
 989 0000 0128     		cmp	r0, #1
 990 0002 0ED8     		bhi	.L69
 374:Drivers/BSP/STM32G4xx_Nucleo/stm32g4xx_nucleo.c ****   int32_t ret = BSP_ERROR_NONE;
 991              		.loc 1 374 1 view .LVU227
 992 0004 38B5     		push	{r3, r4, r5, lr}
 993              		.cfi_def_cfa_offset 16
 994              		.cfi_offset 3, -16
 995              		.cfi_offset 4, -12
 996              		.cfi_offset 5, -8
 997              		.cfi_offset 14, -4
 998 0006 0D46     		mov	r5, r1
 385:Drivers/BSP/STM32G4xx_Nucleo/stm32g4xx_nucleo.c **** #else
 999              		.loc 1 385 5 is_stmt 1 view .LVU228
 1000 0008 9423     		movs	r3, #148
 1001 000a 094C     		ldr	r4, .L75
 1002 000c 03FB0044 		mla	r4, r3, r0, r4
 1003 0010 2046     		mov	r0, r4
 1004              	.LVL63:
 385:Drivers/BSP/STM32G4xx_Nucleo/stm32g4xx_nucleo.c **** #else
 1005              		.loc 1 385 5 is_stmt 0 view .LVU229
 1006 0012 FFF7FEFF 		bl	COM1_MspInit
 1007              	.LVL64:
 396:Drivers/BSP/STM32G4xx_Nucleo/stm32g4xx_nucleo.c ****     {
 1008              		.loc 1 396 5 is_stmt 1 view .LVU230
 396:Drivers/BSP/STM32G4xx_Nucleo/stm32g4xx_nucleo.c ****     {
 1009              		.loc 1 396 8 is_stmt 0 view .LVU231
 1010 0016 2946     		mov	r1, r5
 1011 0018 2046     		mov	r0, r4
 1012 001a FFF7FEFF 		bl	MX_LPUART1_Init
 1013              	.LVL65:
 396:Drivers/BSP/STM32G4xx_Nucleo/stm32g4xx_nucleo.c ****     {
 1014              		.loc 1 396 7 discriminator 1 view .LVU232
 1015 001e 18B9     		cbnz	r0, .L70
 1016              	.LVL66:
 1017              	.L67:
 403:Drivers/BSP/STM32G4xx_Nucleo/stm32g4xx_nucleo.c **** 
 1018              		.loc 1 403 1 view .LVU233
 1019 0020 38BD     		pop	{r3, r4, r5, pc}
 1020              	.LVL67:
 1021              	.L69:
ARM GAS  /tmp/ccvsXuDi.s 			page 33


 1022              		.cfi_def_cfa_offset 0
 1023              		.cfi_restore 3
 1024              		.cfi_restore 4
 1025              		.cfi_restore 5
 1026              		.cfi_restore 14
 379:Drivers/BSP/STM32G4xx_Nucleo/stm32g4xx_nucleo.c ****   }
 1027              		.loc 1 379 9 view .LVU234
 1028 0022 6FF00100 		mvn	r0, #1
 1029              	.LVL68:
 403:Drivers/BSP/STM32G4xx_Nucleo/stm32g4xx_nucleo.c **** 
 1030              		.loc 1 403 1 view .LVU235
 1031 0026 7047     		bx	lr
 1032              	.LVL69:
 1033              	.L70:
 1034              		.cfi_def_cfa_offset 16
 1035              		.cfi_offset 3, -16
 1036              		.cfi_offset 4, -12
 1037              		.cfi_offset 5, -8
 1038              		.cfi_offset 14, -4
 398:Drivers/BSP/STM32G4xx_Nucleo/stm32g4xx_nucleo.c ****     }
 1039              		.loc 1 398 14 view .LVU236
 1040 0028 6FF00300 		mvn	r0, #3
 1041              	.LVL70:
 398:Drivers/BSP/STM32G4xx_Nucleo/stm32g4xx_nucleo.c ****     }
 1042              		.loc 1 398 14 view .LVU237
 1043 002c F8E7     		b	.L67
 1044              	.L76:
 1045 002e 00BF     		.align	2
 1046              	.L75:
 1047 0030 00000000 		.word	hcom_uart
 1048              		.cfi_endproc
 1049              	.LFE146:
 1051              		.section	.text.BSP_COM_SelectLogPort,"ax",%progbits
 1052              		.align	1
 1053              		.global	BSP_COM_SelectLogPort
 1054              		.syntax unified
 1055              		.thumb
 1056              		.thumb_func
 1058              	BSP_COM_SelectLogPort:
 1059              	.LVL71:
 1060              	.LFB149:
 543:Drivers/BSP/STM32G4xx_Nucleo/stm32g4xx_nucleo.c ****   if(COM_ActiveLogPort != COM)
 1061              		.loc 1 543 1 is_stmt 1 view -0
 1062              		.cfi_startproc
 1063              		@ args = 0, pretend = 0, frame = 0
 1064              		@ frame_needed = 0, uses_anonymous_args = 0
 1065              		@ link register save eliminated.
 544:Drivers/BSP/STM32G4xx_Nucleo/stm32g4xx_nucleo.c ****   {
 1066              		.loc 1 544 3 view .LVU239
 544:Drivers/BSP/STM32G4xx_Nucleo/stm32g4xx_nucleo.c ****   {
 1067              		.loc 1 544 24 is_stmt 0 view .LVU240
 1068 0000 034B     		ldr	r3, .L79
 1069 0002 1B78     		ldrb	r3, [r3]	@ zero_extendqisi2
 544:Drivers/BSP/STM32G4xx_Nucleo/stm32g4xx_nucleo.c ****   {
 1070              		.loc 1 544 5 view .LVU241
 1071 0004 8342     		cmp	r3, r0
 1072 0006 01D0     		beq	.L78
ARM GAS  /tmp/ccvsXuDi.s 			page 34


 546:Drivers/BSP/STM32G4xx_Nucleo/stm32g4xx_nucleo.c ****   }
 1073              		.loc 1 546 5 is_stmt 1 view .LVU242
 546:Drivers/BSP/STM32G4xx_Nucleo/stm32g4xx_nucleo.c ****   }
 1074              		.loc 1 546 23 is_stmt 0 view .LVU243
 1075 0008 014B     		ldr	r3, .L79
 1076 000a 1870     		strb	r0, [r3]
 1077              	.L78:
 548:Drivers/BSP/STM32G4xx_Nucleo/stm32g4xx_nucleo.c **** }
 1078              		.loc 1 548 3 is_stmt 1 view .LVU244
 549:Drivers/BSP/STM32G4xx_Nucleo/stm32g4xx_nucleo.c **** 
 1079              		.loc 1 549 1 is_stmt 0 view .LVU245
 1080 000c 0020     		movs	r0, #0
 1081              	.LVL72:
 549:Drivers/BSP/STM32G4xx_Nucleo/stm32g4xx_nucleo.c **** 
 1082              		.loc 1 549 1 view .LVU246
 1083 000e 7047     		bx	lr
 1084              	.L80:
 1085              		.align	2
 1086              	.L79:
 1087 0010 00000000 		.word	COM_ActiveLogPort
 1088              		.cfi_endproc
 1089              	.LFE149:
 1091              		.section	.text.__io_putchar,"ax",%progbits
 1092              		.align	1
 1093              		.global	__io_putchar
 1094              		.syntax unified
 1095              		.thumb
 1096              		.thumb_func
 1098              	__io_putchar:
 1099              	.LVL73:
 1100              	.LFB150:
 577:Drivers/BSP/STM32G4xx_Nucleo/stm32g4xx_nucleo.c ****   (void) HAL_UART_Transmit(&hcom_uart [COM_ActiveLogPort], (uint8_t *) &ch, 1, COM_POLL_TIMEOUT);
 1101              		.loc 1 577 1 is_stmt 1 view -0
 1102              		.cfi_startproc
 1103              		@ args = 0, pretend = 0, frame = 8
 1104              		@ frame_needed = 0, uses_anonymous_args = 0
 577:Drivers/BSP/STM32G4xx_Nucleo/stm32g4xx_nucleo.c ****   (void) HAL_UART_Transmit(&hcom_uart [COM_ActiveLogPort], (uint8_t *) &ch, 1, COM_POLL_TIMEOUT);
 1105              		.loc 1 577 1 is_stmt 0 view .LVU248
 1106 0000 10B5     		push	{r4, lr}
 1107              		.cfi_def_cfa_offset 8
 1108              		.cfi_offset 4, -8
 1109              		.cfi_offset 14, -4
 1110 0002 82B0     		sub	sp, sp, #8
 1111              		.cfi_def_cfa_offset 16
 1112 0004 0190     		str	r0, [sp, #4]
 578:Drivers/BSP/STM32G4xx_Nucleo/stm32g4xx_nucleo.c ****   return ch;
 1113              		.loc 1 578 3 is_stmt 1 view .LVU249
 578:Drivers/BSP/STM32G4xx_Nucleo/stm32g4xx_nucleo.c ****   return ch;
 1114              		.loc 1 578 39 is_stmt 0 view .LVU250
 1115 0006 084B     		ldr	r3, .L83
 1116 0008 1878     		ldrb	r0, [r3]	@ zero_extendqisi2
 1117              	.LVL74:
 578:Drivers/BSP/STM32G4xx_Nucleo/stm32g4xx_nucleo.c ****   return ch;
 1118              		.loc 1 578 10 view .LVU251
 1119 000a 4FF47A73 		mov	r3, #1000
 1120 000e 0122     		movs	r2, #1
 1121 0010 01A9     		add	r1, sp, #4
ARM GAS  /tmp/ccvsXuDi.s 			page 35


 1122              	.LVL75:
 578:Drivers/BSP/STM32G4xx_Nucleo/stm32g4xx_nucleo.c ****   return ch;
 1123              		.loc 1 578 10 view .LVU252
 1124 0012 4FF0940C 		mov	ip, #148
 1125 0016 054C     		ldr	r4, .L83+4
 1126 0018 0CFB0040 		mla	r0, ip, r0, r4
 1127 001c FFF7FEFF 		bl	HAL_UART_Transmit
 1128              	.LVL76:
 579:Drivers/BSP/STM32G4xx_Nucleo/stm32g4xx_nucleo.c **** }
 1129              		.loc 1 579 3 is_stmt 1 view .LVU253
 580:Drivers/BSP/STM32G4xx_Nucleo/stm32g4xx_nucleo.c **** #endif /* USE_COM_LOG */
 1130              		.loc 1 580 1 is_stmt 0 view .LVU254
 1131 0020 0198     		ldr	r0, [sp, #4]
 1132 0022 02B0     		add	sp, sp, #8
 1133              		.cfi_def_cfa_offset 8
 1134              		@ sp needed
 1135 0024 10BD     		pop	{r4, pc}
 1136              	.L84:
 1137 0026 00BF     		.align	2
 1138              	.L83:
 1139 0028 00000000 		.word	COM_ActiveLogPort
 1140 002c 00000000 		.word	hcom_uart
 1141              		.cfi_endproc
 1142              	.LFE150:
 1144              		.section	.bss.COM_ActiveLogPort,"aw",%nobits
 1147              	COM_ActiveLogPort:
 1148 0000 00       		.space	1
 1149              		.global	hcom_uart
 1150              		.section	.bss.hcom_uart,"aw",%nobits
 1151              		.align	2
 1154              	hcom_uart:
 1155 0000 00000000 		.space	148
 1155      00000000 
 1155      00000000 
 1155      00000000 
 1155      00000000 
 1156              		.global	hpb_exti
 1157              		.section	.bss.hpb_exti,"aw",%nobits
 1158              		.align	2
 1161              	hpb_exti:
 1162 0000 00000000 		.space	8
 1162      00000000 
 1163              		.text
 1164              	.Letext0:
 1165              		.file 2 "Drivers/CMSIS/Device/ST/STM32G4xx/Include/stm32g474xx.h"
 1166              		.file 3 "/home/Aki/.config/Code - OSS/User/globalStorage/bmd.stm32-for-vscode/@xpack-dev-tools/arm
 1167              		.file 4 "/home/Aki/.config/Code - OSS/User/globalStorage/bmd.stm32-for-vscode/@xpack-dev-tools/arm
 1168              		.file 5 "Drivers/STM32G4xx_HAL_Driver/Inc/stm32g4xx_hal_def.h"
 1169              		.file 6 "Drivers/STM32G4xx_HAL_Driver/Inc/stm32g4xx_hal_gpio.h"
 1170              		.file 7 "Drivers/STM32G4xx_HAL_Driver/Inc/stm32g4xx_hal_dma.h"
 1171              		.file 8 "Drivers/STM32G4xx_HAL_Driver/Inc/stm32g4xx_hal_exti.h"
 1172              		.file 9 "Drivers/STM32G4xx_HAL_Driver/Inc/stm32g4xx_hal_uart.h"
 1173              		.file 10 "Drivers/BSP/STM32G4xx_Nucleo/stm32g4xx_nucleo.h"
 1174              		.file 11 "Drivers/STM32G4xx_HAL_Driver/Inc/stm32g4xx_hal_cortex.h"
ARM GAS  /tmp/ccvsXuDi.s 			page 36

